
TermRobot.elf:     file format elf32-avr

Sections:
Idx Name          Size      VMA       LMA       File off  Algn
  0 .data         000000a6  00800100  00002534  000025c8  2**0
                  CONTENTS, ALLOC, LOAD, DATA
  1 .text         00002534  00000000  00000000  00000094  2**1
                  CONTENTS, ALLOC, LOAD, READONLY, CODE
  2 .bss          000000a6  008001a6  008001a6  0000266e  2**0
                  ALLOC
  3 .comment      0000005c  00000000  00000000  0000266e  2**0
                  CONTENTS, READONLY
  4 .note.gnu.avr.deviceinfo 0000003c  00000000  00000000  000026cc  2**2
                  CONTENTS, READONLY
  5 .debug_aranges 00000278  00000000  00000000  00002708  2**0
                  CONTENTS, READONLY, DEBUGGING
  6 .debug_info   00002a1b  00000000  00000000  00002980  2**0
                  CONTENTS, READONLY, DEBUGGING
  7 .debug_abbrev 00000a91  00000000  00000000  0000539b  2**0
                  CONTENTS, READONLY, DEBUGGING
  8 .debug_line   000014bf  00000000  00000000  00005e2c  2**0
                  CONTENTS, READONLY, DEBUGGING
  9 .debug_frame  000007d0  00000000  00000000  000072ec  2**2
                  CONTENTS, READONLY, DEBUGGING
 10 .debug_str    00000d78  00000000  00000000  00007abc  2**0
                  CONTENTS, READONLY, DEBUGGING
 11 .debug_loc    00002262  00000000  00000000  00008834  2**0
                  CONTENTS, READONLY, DEBUGGING
 12 .debug_ranges 00000268  00000000  00000000  0000aa96  2**0
                  CONTENTS, READONLY, DEBUGGING

Disassembly of section .text:

00000000 <__vectors>:
       0:	96 c0       	rjmp	.+300    	; 0x12e <__ctors_end>
       2:	00 00       	nop
       4:	b3 c0       	rjmp	.+358    	; 0x16c <__bad_interrupt>
       6:	00 00       	nop
       8:	b1 c0       	rjmp	.+354    	; 0x16c <__bad_interrupt>
       a:	00 00       	nop
       c:	af c0       	rjmp	.+350    	; 0x16c <__bad_interrupt>
       e:	00 00       	nop
      10:	ad c0       	rjmp	.+346    	; 0x16c <__bad_interrupt>
      12:	00 00       	nop
      14:	ab c0       	rjmp	.+342    	; 0x16c <__bad_interrupt>
      16:	00 00       	nop
      18:	a9 c0       	rjmp	.+338    	; 0x16c <__bad_interrupt>
      1a:	00 00       	nop
      1c:	a7 c0       	rjmp	.+334    	; 0x16c <__bad_interrupt>
      1e:	00 00       	nop
      20:	a5 c0       	rjmp	.+330    	; 0x16c <__bad_interrupt>
      22:	00 00       	nop
      24:	a3 c0       	rjmp	.+326    	; 0x16c <__bad_interrupt>
      26:	00 00       	nop
      28:	0c 94 9e 0a 	jmp	0x153c	; 0x153c <__vector_10>
      2c:	9f c0       	rjmp	.+318    	; 0x16c <__bad_interrupt>
      2e:	00 00       	nop
      30:	9d c0       	rjmp	.+314    	; 0x16c <__bad_interrupt>
      32:	00 00       	nop
      34:	9b c0       	rjmp	.+310    	; 0x16c <__bad_interrupt>
      36:	00 00       	nop
      38:	99 c0       	rjmp	.+306    	; 0x16c <__bad_interrupt>
      3a:	00 00       	nop
      3c:	97 c0       	rjmp	.+302    	; 0x16c <__bad_interrupt>
      3e:	00 00       	nop
      40:	95 c0       	rjmp	.+298    	; 0x16c <__bad_interrupt>
      42:	00 00       	nop
      44:	93 c0       	rjmp	.+294    	; 0x16c <__bad_interrupt>
      46:	00 00       	nop
      48:	91 c0       	rjmp	.+290    	; 0x16c <__bad_interrupt>
      4a:	00 00       	nop
      4c:	8f c0       	rjmp	.+286    	; 0x16c <__bad_interrupt>
      4e:	00 00       	nop
      50:	8d c0       	rjmp	.+282    	; 0x16c <__bad_interrupt>
      52:	00 00       	nop
      54:	8b c0       	rjmp	.+278    	; 0x16c <__bad_interrupt>
      56:	00 00       	nop
      58:	89 c0       	rjmp	.+274    	; 0x16c <__bad_interrupt>
      5a:	00 00       	nop
      5c:	87 c0       	rjmp	.+270    	; 0x16c <__bad_interrupt>
      5e:	00 00       	nop
      60:	85 c0       	rjmp	.+266    	; 0x16c <__bad_interrupt>
      62:	00 00       	nop
      64:	83 c0       	rjmp	.+262    	; 0x16c <__bad_interrupt>
      66:	00 00       	nop
      68:	81 c0       	rjmp	.+258    	; 0x16c <__bad_interrupt>
      6a:	00 00       	nop
      6c:	7f c0       	rjmp	.+254    	; 0x16c <__bad_interrupt>
      6e:	00 00       	nop
      70:	7d c0       	rjmp	.+250    	; 0x16c <__bad_interrupt>
      72:	00 00       	nop
      74:	7b c0       	rjmp	.+246    	; 0x16c <__bad_interrupt>
      76:	00 00       	nop
      78:	79 c0       	rjmp	.+242    	; 0x16c <__bad_interrupt>
      7a:	00 00       	nop
      7c:	77 c0       	rjmp	.+238    	; 0x16c <__bad_interrupt>
      7e:	00 00       	nop
      80:	75 c0       	rjmp	.+234    	; 0x16c <__bad_interrupt>
      82:	00 00       	nop
      84:	73 c0       	rjmp	.+230    	; 0x16c <__bad_interrupt>
      86:	00 00       	nop
      88:	71 c0       	rjmp	.+226    	; 0x16c <__bad_interrupt>
      8a:	00 00       	nop
      8c:	f5 00       	.word	0x00f5	; ????
      8e:	01 01       	movw	r0, r2
      90:	0d 01       	movw	r0, r26
      92:	1b 01       	movw	r2, r22
      94:	29 01       	movw	r4, r18
      96:	35 01       	movw	r6, r10
      98:	39 01       	movw	r6, r18
      9a:	3d 01       	movw	r6, r26
      9c:	41 01       	movw	r8, r2
      9e:	d1 0a       	sbc	r13, r17
      a0:	fd 0a       	sbc	r15, r29
      a2:	35 0b       	sbc	r19, r21
      a4:	62 0b       	sbc	r22, r18
      a6:	90 0b       	sbc	r25, r16
      a8:	bd 0b       	sbc	r27, r29
      aa:	ea 0b       	sbc	r30, r26
      ac:	08 00       	.word	0x0008	; ????
      ae:	00 00       	nop
      b0:	be 92       	st	-X, r11
      b2:	24 49       	sbci	r18, 0x94	; 148
      b4:	12 3e       	cpi	r17, 0xE2	; 226
      b6:	ab aa       	std	Y+51, r10	; 0x33
      b8:	aa 2a       	or	r10, r26
      ba:	be cd       	rjmp	.-1156   	; 0xfffffc38 <__eeprom_end+0xff7efc38>
      bc:	cc cc       	rjmp	.-1640   	; 0xfffffa56 <__eeprom_end+0xff7efa56>
      be:	4c 3e       	cpi	r20, 0xEC	; 236
      c0:	00 00       	nop
      c2:	00 80       	ld	r0, Z
      c4:	be ab       	std	Y+54, r27	; 0x36
      c6:	aa aa       	std	Y+50, r10	; 0x32
      c8:	aa 3e       	cpi	r26, 0xEA	; 234
      ca:	00 00       	nop
      cc:	00 00       	nop
      ce:	bf 00       	.word	0x00bf	; ????
      d0:	00 00       	nop
      d2:	80 3f       	cpi	r24, 0xF0	; 240
      d4:	00 00       	nop
      d6:	00 00       	nop
      d8:	00 08       	sbc	r0, r0
      da:	41 78       	andi	r20, 0x81	; 129
      dc:	d3 bb       	out	0x13, r29	; 19
      de:	43 87       	std	Z+11, r20	; 0x0b
      e0:	d1 13       	cpse	r29, r17
      e2:	3d 19       	sub	r19, r13
      e4:	0e 3c       	cpi	r16, 0xCE	; 206
      e6:	c3 bd       	out	0x23, r28	; 35
      e8:	42 82       	std	Z+2, r4	; 0x02
      ea:	ad 2b       	or	r26, r29
      ec:	3e 68       	ori	r19, 0x8E	; 142
      ee:	ec 82       	std	Y+4, r14	; 0x04
      f0:	76 be       	out	0x36, r7	; 54
      f2:	d9 8f       	std	Y+25, r29	; 0x19
      f4:	e1 a9       	ldd	r30, Z+49	; 0x31
      f6:	3e 4c       	sbci	r19, 0xCE	; 206
      f8:	80 ef       	ldi	r24, 0xF0	; 240
      fa:	ff be       	out	0x3f, r15	; 63
      fc:	01 c4       	rjmp	.+2050   	; 0x900 <_Z11IIR_LPF_humd+0xfc>
      fe:	ff 7f       	andi	r31, 0xFF	; 255
     100:	3f 00       	.word	0x003f	; ????
     102:	00 00       	nop
     104:	00 00       	nop
     106:	07 63       	ori	r16, 0x37	; 55
     108:	42 36       	cpi	r20, 0x62	; 98
     10a:	b7 9b       	sbis	0x16, 7	; 22
     10c:	d8 a7       	std	Y+40, r29	; 0x28
     10e:	1a 39       	cpi	r17, 0x9A	; 154
     110:	68 56       	subi	r22, 0x68	; 104
     112:	18 ae       	std	Y+56, r1	; 0x38
     114:	ba ab       	std	Y+50, r27	; 0x32
     116:	55 8c       	ldd	r5, Z+29	; 0x1d
     118:	1d 3c       	cpi	r17, 0xCD	; 205
     11a:	b7 cc       	rjmp	.-1682   	; 0xfffffa8a <__eeprom_end+0xff7efa8a>
     11c:	57 63       	ori	r21, 0x37	; 55
     11e:	bd 6d       	ori	r27, 0xDD	; 221
     120:	ed fd       	.word	0xfded	; ????
     122:	75 3e       	cpi	r23, 0xE5	; 229
     124:	f6 17       	cp	r31, r22
     126:	72 31       	cpi	r23, 0x12	; 18
     128:	bf 00       	.word	0x00bf	; ????
     12a:	00 00       	nop
     12c:	80 3f       	cpi	r24, 0xF0	; 240

0000012e <__ctors_end>:
     12e:	11 24       	eor	r1, r1
     130:	1f be       	out	0x3f, r1	; 63
     132:	cf ef       	ldi	r28, 0xFF	; 255
     134:	d0 e1       	ldi	r29, 0x10	; 16
     136:	de bf       	out	0x3e, r29	; 62
     138:	cd bf       	out	0x3d, r28	; 61

0000013a <__do_copy_data>:
     13a:	11 e0       	ldi	r17, 0x01	; 1
     13c:	a0 e0       	ldi	r26, 0x00	; 0
     13e:	b1 e0       	ldi	r27, 0x01	; 1
     140:	e4 e3       	ldi	r30, 0x34	; 52
     142:	f5 e2       	ldi	r31, 0x25	; 37
     144:	00 e0       	ldi	r16, 0x00	; 0
     146:	0b bf       	out	0x3b, r16	; 59
     148:	02 c0       	rjmp	.+4      	; 0x14e <__do_copy_data+0x14>
     14a:	07 90       	elpm	r0, Z+
     14c:	0d 92       	st	X+, r0
     14e:	a6 3a       	cpi	r26, 0xA6	; 166
     150:	b1 07       	cpc	r27, r17
     152:	d9 f7       	brne	.-10     	; 0x14a <__do_copy_data+0x10>

00000154 <__do_clear_bss>:
     154:	22 e0       	ldi	r18, 0x02	; 2
     156:	a6 ea       	ldi	r26, 0xA6	; 166
     158:	b1 e0       	ldi	r27, 0x01	; 1
     15a:	01 c0       	rjmp	.+2      	; 0x15e <.do_clear_bss_start>

0000015c <.do_clear_bss_loop>:
     15c:	1d 92       	st	X+, r1

0000015e <.do_clear_bss_start>:
     15e:	ac 34       	cpi	r26, 0x4C	; 76
     160:	b2 07       	cpc	r27, r18
     162:	e1 f7       	brne	.-8      	; 0x15c <.do_clear_bss_loop>
     164:	0e 94 38 09 	call	0x1270	; 0x1270 <main>
     168:	0c 94 98 12 	jmp	0x2530	; 0x2530 <_exit>

0000016c <__bad_interrupt>:
     16c:	49 cf       	rjmp	.-366    	; 0x0 <__vectors>

0000016e <_Z13getResistancei>:
	
	a_adc = get_adc(5);
	a_adc = IIR_LPF_LM(a_adc);
	USART1_Transmit_UINT(adc_to_cel_LM35(a_adc)); // LM35 to celcius
	USART1_Transmit('o');USART1_Transmit('C');
	USART1_Transmit('\r'); //줄넘김.
     16e:	bc 01       	movw	r22, r24
     170:	99 0f       	add	r25, r25
     172:	88 0b       	sbc	r24, r24
     174:	99 0b       	sbc	r25, r25
     176:	0e 94 23 0d 	call	0x1a46	; 0x1a46 <__floatsisf>
     17a:	9b 01       	movw	r18, r22
     17c:	ac 01       	movw	r20, r24
     17e:	60 e0       	ldi	r22, 0x00	; 0
     180:	70 ec       	ldi	r23, 0xC0	; 192
     182:	8f e7       	ldi	r24, 0x7F	; 127
     184:	94 e4       	ldi	r25, 0x44	; 68
     186:	0e 94 8d 0c 	call	0x191a	; 0x191a <__divsf3>
     18a:	20 e0       	ldi	r18, 0x00	; 0
     18c:	30 e0       	ldi	r19, 0x00	; 0
     18e:	40 ea       	ldi	r20, 0xA0	; 160
     190:	50 e4       	ldi	r21, 0x40	; 64
     192:	0e 94 fe 0d 	call	0x1bfc	; 0x1bfc <__mulsf3>
     196:	20 e0       	ldi	r18, 0x00	; 0
     198:	30 e0       	ldi	r19, 0x00	; 0
     19a:	40 e8       	ldi	r20, 0x80	; 128
     19c:	5f e3       	ldi	r21, 0x3F	; 63
     19e:	0e 94 28 0c 	call	0x1850	; 0x1850 <__subsf3>
     1a2:	20 e0       	ldi	r18, 0x00	; 0
     1a4:	30 e0       	ldi	r19, 0x00	; 0
     1a6:	40 e2       	ldi	r20, 0x20	; 32
     1a8:	51 e4       	ldi	r21, 0x41	; 65
     1aa:	0c 94 fe 0d 	jmp	0x1bfc	; 0x1bfc <__mulsf3>
     1ae:	08 95       	ret

000001b0 <_Z6getPPMi>:
     1b0:	de df       	rcall	.-68     	; 0x16e <_Z13getResistancei>
     1b2:	20 e0       	ldi	r18, 0x00	; 0
     1b4:	30 e8       	ldi	r19, 0x80	; 128
     1b6:	4c e4       	ldi	r20, 0x4C	; 76
     1b8:	54 e4       	ldi	r21, 0x44	; 68
     1ba:	0e 94 8d 0c 	call	0x191a	; 0x191a <__divsf3>
     1be:	2e ed       	ldi	r18, 0xDE	; 222
     1c0:	37 e3       	ldi	r19, 0x37	; 55
     1c2:	41 e3       	ldi	r20, 0x31	; 49
     1c4:	50 ec       	ldi	r21, 0xC0	; 192
     1c6:	0e 94 61 0e 	call	0x1cc2	; 0x1cc2 <pow>
     1ca:	22 e4       	ldi	r18, 0x42	; 66
     1cc:	34 e3       	ldi	r19, 0x34	; 52
     1ce:	49 ee       	ldi	r20, 0xE9	; 233
     1d0:	52 e4       	ldi	r21, 0x42	; 66
     1d2:	0c 94 fe 0d 	jmp	0x1bfc	; 0x1bfc <__mulsf3>
     1d6:	08 95       	ret

000001d8 <_Z10set_RGBLEDi>:
     1d8:	89 30       	cpi	r24, 0x09	; 9
     1da:	91 05       	cpc	r25, r1
     1dc:	08 f0       	brcs	.+2      	; 0x1e0 <_Z10set_RGBLEDi+0x8>
     1de:	54 c0       	rjmp	.+168    	; 0x288 <_Z10set_RGBLEDi+0xb0>
     1e0:	fc 01       	movw	r30, r24
     1e2:	ea 5b       	subi	r30, 0xBA	; 186
     1e4:	ff 4f       	sbci	r31, 0xFF	; 255
     1e6:	0c 94 a5 0f 	jmp	0x1f4a	; 0x1f4a <__tablejump2__>
     1ea:	8b b3       	in	r24, 0x1b	; 27
     1ec:	8f 7e       	andi	r24, 0xEF	; 239
     1ee:	8b bb       	out	0x1b, r24	; 27
     1f0:	81 e0       	ldi	r24, 0x01	; 1
     1f2:	90 e0       	ldi	r25, 0x00	; 0
     1f4:	99 bd       	out	0x29, r25	; 41
     1f6:	88 bd       	out	0x28, r24	; 40
     1f8:	90 93 79 00 	sts	0x0079, r25	; 0x800079 <__TEXT_REGION_LENGTH__+0x7e0079>
     1fc:	80 93 78 00 	sts	0x0078, r24	; 0x800078 <__TEXT_REGION_LENGTH__+0x7e0078>
     200:	08 95       	ret
     202:	8b b3       	in	r24, 0x1b	; 27
     204:	8f 7e       	andi	r24, 0xEF	; 239
     206:	8b bb       	out	0x1b, r24	; 27
     208:	80 e4       	ldi	r24, 0x40	; 64
     20a:	9c e9       	ldi	r25, 0x9C	; 156
     20c:	99 bd       	out	0x29, r25	; 41
     20e:	88 bd       	out	0x28, r24	; 40
     210:	90 93 79 00 	sts	0x0079, r25	; 0x800079 <__TEXT_REGION_LENGTH__+0x7e0079>
     214:	80 93 78 00 	sts	0x0078, r24	; 0x800078 <__TEXT_REGION_LENGTH__+0x7e0078>
     218:	08 95       	ret
     21a:	8b b3       	in	r24, 0x1b	; 27
     21c:	80 61       	ori	r24, 0x10	; 16
     21e:	8b bb       	out	0x1b, r24	; 27
     220:	81 e0       	ldi	r24, 0x01	; 1
     222:	90 e0       	ldi	r25, 0x00	; 0
     224:	99 bd       	out	0x29, r25	; 41
     226:	88 bd       	out	0x28, r24	; 40
     228:	8f e3       	ldi	r24, 0x3F	; 63
     22a:	9c e9       	ldi	r25, 0x9C	; 156
     22c:	90 93 79 00 	sts	0x0079, r25	; 0x800079 <__TEXT_REGION_LENGTH__+0x7e0079>
     230:	80 93 78 00 	sts	0x0078, r24	; 0x800078 <__TEXT_REGION_LENGTH__+0x7e0078>
     234:	08 95       	ret
     236:	8b b3       	in	r24, 0x1b	; 27
     238:	80 61       	ori	r24, 0x10	; 16
     23a:	8b bb       	out	0x1b, r24	; 27
     23c:	80 e4       	ldi	r24, 0x40	; 64
     23e:	9c e9       	ldi	r25, 0x9C	; 156
     240:	99 bd       	out	0x29, r25	; 41
     242:	88 bd       	out	0x28, r24	; 40
     244:	81 e0       	ldi	r24, 0x01	; 1
     246:	90 e0       	ldi	r25, 0x00	; 0
     248:	90 93 79 00 	sts	0x0079, r25	; 0x800079 <__TEXT_REGION_LENGTH__+0x7e0079>
     24c:	80 93 78 00 	sts	0x0078, r24	; 0x800078 <__TEXT_REGION_LENGTH__+0x7e0078>
     250:	08 95       	ret
     252:	8b b3       	in	r24, 0x1b	; 27
     254:	8f 7e       	andi	r24, 0xEF	; 239
     256:	8b bb       	out	0x1b, r24	; 27
     258:	80 e3       	ldi	r24, 0x30	; 48
     25a:	95 e7       	ldi	r25, 0x75	; 117
     25c:	99 bd       	out	0x29, r25	; 41
     25e:	88 bd       	out	0x28, r24	; 40
     260:	90 93 79 00 	sts	0x0079, r25	; 0x800079 <__TEXT_REGION_LENGTH__+0x7e0079>
     264:	80 93 78 00 	sts	0x0078, r24	; 0x800078 <__TEXT_REGION_LENGTH__+0x7e0078>
     268:	08 95       	ret
     26a:	8b b3       	in	r24, 0x1b	; 27
     26c:	80 61       	ori	r24, 0x10	; 16
     26e:	8b bb       	out	0x1b, r24	; 27
     270:	08 95       	ret
     272:	8b b3       	in	r24, 0x1b	; 27
     274:	80 61       	ori	r24, 0x10	; 16
     276:	8b bb       	out	0x1b, r24	; 27
     278:	08 95       	ret
     27a:	8b b3       	in	r24, 0x1b	; 27
     27c:	80 61       	ori	r24, 0x10	; 16
     27e:	8b bb       	out	0x1b, r24	; 27
     280:	08 95       	ret
     282:	8b b3       	in	r24, 0x1b	; 27
     284:	80 61       	ori	r24, 0x10	; 16
     286:	8b bb       	out	0x1b, r24	; 27
     288:	08 95       	ret

0000028a <_Z11init_RGBLEDv>:
     28a:	8b b3       	in	r24, 0x1b	; 27
     28c:	80 61       	ori	r24, 0x10	; 16
     28e:	8b bb       	out	0x1b, r24	; 27
     290:	87 b3       	in	r24, 0x17	; 23
     292:	80 64       	ori	r24, 0x40	; 64
     294:	87 bb       	out	0x17, r24	; 23
     296:	87 b3       	in	r24, 0x17	; 23
     298:	80 68       	ori	r24, 0x80	; 128
     29a:	87 bb       	out	0x17, r24	; 23
     29c:	08 95       	ret

0000029e <_Z9set_UART1v>:
     29e:	eb e9       	ldi	r30, 0x9B	; 155
     2a0:	f0 e0       	ldi	r31, 0x00	; 0
     2a2:	80 81       	ld	r24, Z
     2a4:	8f 7d       	andi	r24, 0xDF	; 223
     2a6:	80 83       	st	Z, r24
     2a8:	ea e9       	ldi	r30, 0x9A	; 154
     2aa:	f0 e0       	ldi	r31, 0x00	; 0
     2ac:	80 81       	ld	r24, Z
     2ae:	80 61       	ori	r24, 0x10	; 16
     2b0:	80 83       	st	Z, r24
     2b2:	80 81       	ld	r24, Z
     2b4:	88 60       	ori	r24, 0x08	; 8
     2b6:	80 83       	st	Z, r24
     2b8:	ed e9       	ldi	r30, 0x9D	; 157
     2ba:	f0 e0       	ldi	r31, 0x00	; 0
     2bc:	80 81       	ld	r24, Z
     2be:	84 60       	ori	r24, 0x04	; 4
     2c0:	80 83       	st	Z, r24
     2c2:	80 81       	ld	r24, Z
     2c4:	82 60       	ori	r24, 0x02	; 2
     2c6:	80 83       	st	Z, r24
     2c8:	87 e6       	ldi	r24, 0x67	; 103
     2ca:	80 93 99 00 	sts	0x0099, r24	; 0x800099 <__TEXT_REGION_LENGTH__+0x7e0099>
     2ce:	08 95       	ret

000002d0 <_Z15USART1_Transmith>:
     2d0:	90 91 9b 00 	lds	r25, 0x009B	; 0x80009b <__TEXT_REGION_LENGTH__+0x7e009b>
     2d4:	95 ff       	sbrs	r25, 5
     2d6:	fc cf       	rjmp	.-8      	; 0x2d0 <_Z15USART1_Transmith>
     2d8:	80 93 9c 00 	sts	0x009C, r24	; 0x80009c <__TEXT_REGION_LENGTH__+0x7e009c>
     2dc:	08 95       	ret

000002de <_Z20USART1_Transmit_UINTj>:
     2de:	ef 92       	push	r14
     2e0:	ff 92       	push	r15
     2e2:	0f 93       	push	r16
     2e4:	1f 93       	push	r17
     2e6:	cf 93       	push	r28
     2e8:	df 93       	push	r29
     2ea:	ec 01       	movw	r28, r24
     2ec:	80 91 9b 00 	lds	r24, 0x009B	; 0x80009b <__TEXT_REGION_LENGTH__+0x7e009b>
     2f0:	85 ff       	sbrs	r24, 5
     2f2:	fc cf       	rjmp	.-8      	; 0x2ec <_Z20USART1_Transmit_UINTj+0xe>
     2f4:	7e 01       	movw	r14, r28
     2f6:	f6 94       	lsr	r15
     2f8:	e7 94       	ror	r14
     2fa:	f6 94       	lsr	r15
     2fc:	e7 94       	ror	r14
     2fe:	f6 94       	lsr	r15
     300:	e7 94       	ror	r14
     302:	f6 94       	lsr	r15
     304:	e7 94       	ror	r14
     306:	97 01       	movw	r18, r14
     308:	a7 e4       	ldi	r26, 0x47	; 71
     30a:	b3 e0       	ldi	r27, 0x03	; 3
     30c:	0e 94 ae 0f 	call	0x1f5c	; 0x1f5c <__umulhisi3>
     310:	8c 01       	movw	r16, r24
     312:	16 95       	lsr	r17
     314:	07 95       	ror	r16
     316:	16 95       	lsr	r17
     318:	07 95       	ror	r16
     31a:	16 95       	lsr	r17
     31c:	07 95       	ror	r16
     31e:	80 e3       	ldi	r24, 0x30	; 48
     320:	80 0f       	add	r24, r16
     322:	d6 df       	rcall	.-84     	; 0x2d0 <_Z15USART1_Transmith>
     324:	20 e1       	ldi	r18, 0x10	; 16
     326:	37 e2       	ldi	r19, 0x27	; 39
     328:	02 9f       	mul	r16, r18
     32a:	c0 01       	movw	r24, r0
     32c:	03 9f       	mul	r16, r19
     32e:	90 0d       	add	r25, r0
     330:	12 9f       	mul	r17, r18
     332:	90 0d       	add	r25, r0
     334:	11 24       	eor	r1, r1
     336:	c8 1b       	sub	r28, r24
     338:	d9 0b       	sbc	r29, r25
     33a:	7e 01       	movw	r14, r28
     33c:	f6 94       	lsr	r15
     33e:	e7 94       	ror	r14
     340:	f6 94       	lsr	r15
     342:	e7 94       	ror	r14
     344:	f6 94       	lsr	r15
     346:	e7 94       	ror	r14
     348:	97 01       	movw	r18, r14
     34a:	a5 ec       	ldi	r26, 0xC5	; 197
     34c:	b0 e2       	ldi	r27, 0x20	; 32
     34e:	0e 94 ae 0f 	call	0x1f5c	; 0x1f5c <__umulhisi3>
     352:	8c 01       	movw	r16, r24
     354:	12 95       	swap	r17
     356:	02 95       	swap	r16
     358:	0f 70       	andi	r16, 0x0F	; 15
     35a:	01 27       	eor	r16, r17
     35c:	1f 70       	andi	r17, 0x0F	; 15
     35e:	01 27       	eor	r16, r17
     360:	80 e3       	ldi	r24, 0x30	; 48
     362:	80 0f       	add	r24, r16
     364:	b5 df       	rcall	.-150    	; 0x2d0 <_Z15USART1_Transmith>
     366:	28 ee       	ldi	r18, 0xE8	; 232
     368:	33 e0       	ldi	r19, 0x03	; 3
     36a:	02 9f       	mul	r16, r18
     36c:	c0 01       	movw	r24, r0
     36e:	03 9f       	mul	r16, r19
     370:	90 0d       	add	r25, r0
     372:	12 9f       	mul	r17, r18
     374:	90 0d       	add	r25, r0
     376:	11 24       	eor	r1, r1
     378:	c8 1b       	sub	r28, r24
     37a:	d9 0b       	sbc	r29, r25
     37c:	7e 01       	movw	r14, r28
     37e:	f6 94       	lsr	r15
     380:	e7 94       	ror	r14
     382:	f6 94       	lsr	r15
     384:	e7 94       	ror	r14
     386:	97 01       	movw	r18, r14
     388:	ab e7       	ldi	r26, 0x7B	; 123
     38a:	b4 e1       	ldi	r27, 0x14	; 20
     38c:	0e 94 ae 0f 	call	0x1f5c	; 0x1f5c <__umulhisi3>
     390:	8c 01       	movw	r16, r24
     392:	16 95       	lsr	r17
     394:	07 95       	ror	r16
     396:	80 e3       	ldi	r24, 0x30	; 48
     398:	80 0f       	add	r24, r16
     39a:	9a df       	rcall	.-204    	; 0x2d0 <_Z15USART1_Transmith>
     39c:	24 e6       	ldi	r18, 0x64	; 100
     39e:	20 9f       	mul	r18, r16
     3a0:	c0 01       	movw	r24, r0
     3a2:	21 9f       	mul	r18, r17
     3a4:	90 0d       	add	r25, r0
     3a6:	11 24       	eor	r1, r1
     3a8:	c8 1b       	sub	r28, r24
     3aa:	d9 0b       	sbc	r29, r25
     3ac:	9e 01       	movw	r18, r28
     3ae:	ad ec       	ldi	r26, 0xCD	; 205
     3b0:	bc ec       	ldi	r27, 0xCC	; 204
     3b2:	0e 94 ae 0f 	call	0x1f5c	; 0x1f5c <__umulhisi3>
     3b6:	8c 01       	movw	r16, r24
     3b8:	16 95       	lsr	r17
     3ba:	07 95       	ror	r16
     3bc:	16 95       	lsr	r17
     3be:	07 95       	ror	r16
     3c0:	16 95       	lsr	r17
     3c2:	07 95       	ror	r16
     3c4:	80 e3       	ldi	r24, 0x30	; 48
     3c6:	80 0f       	add	r24, r16
     3c8:	83 df       	rcall	.-250    	; 0x2d0 <_Z15USART1_Transmith>
     3ca:	c8 01       	movw	r24, r16
     3cc:	88 0f       	add	r24, r24
     3ce:	99 1f       	adc	r25, r25
     3d0:	00 0f       	add	r16, r16
     3d2:	11 1f       	adc	r17, r17
     3d4:	00 0f       	add	r16, r16
     3d6:	11 1f       	adc	r17, r17
     3d8:	00 0f       	add	r16, r16
     3da:	11 1f       	adc	r17, r17
     3dc:	08 0f       	add	r16, r24
     3de:	19 1f       	adc	r17, r25
     3e0:	ce 01       	movw	r24, r28
     3e2:	80 1b       	sub	r24, r16
     3e4:	91 0b       	sbc	r25, r17
     3e6:	80 5d       	subi	r24, 0xD0	; 208
     3e8:	73 df       	rcall	.-282    	; 0x2d0 <_Z15USART1_Transmith>
     3ea:	df 91       	pop	r29
     3ec:	cf 91       	pop	r28
     3ee:	1f 91       	pop	r17
     3f0:	0f 91       	pop	r16
     3f2:	ff 90       	pop	r15
     3f4:	ef 90       	pop	r14
     3f6:	08 95       	ret

000003f8 <_Z8PSD_disti>:
     3f8:	cf 92       	push	r12
     3fa:	df 92       	push	r13
     3fc:	ef 92       	push	r14
     3fe:	ff 92       	push	r15
     400:	bc 01       	movw	r22, r24
     402:	99 0f       	add	r25, r25
     404:	88 0b       	sbc	r24, r24
     406:	99 0b       	sbc	r25, r25
     408:	0e 94 23 0d 	call	0x1a46	; 0x1a46 <__floatsisf>
     40c:	20 e0       	ldi	r18, 0x00	; 0
     40e:	30 e0       	ldi	r19, 0x00	; 0
     410:	40 ea       	ldi	r20, 0xA0	; 160
     412:	5b e3       	ldi	r21, 0x3B	; 59
     414:	0e 94 fe 0d 	call	0x1bfc	; 0x1bfc <__mulsf3>
     418:	2b e7       	ldi	r18, 0x7B	; 123
     41a:	34 e1       	ldi	r19, 0x14	; 20
     41c:	4e e8       	ldi	r20, 0x8E	; 142
     41e:	5f eb       	ldi	r21, 0xBF	; 191
     420:	0e 94 61 0e 	call	0x1cc2	; 0x1cc2 <pow>
     424:	29 e2       	ldi	r18, 0x29	; 41
     426:	3c e2       	ldi	r19, 0x2C	; 44
     428:	4e e0       	ldi	r20, 0x0E	; 14
     42a:	54 e4       	ldi	r21, 0x44	; 68
     42c:	0e 94 fe 0d 	call	0x1bfc	; 0x1bfc <__mulsf3>
     430:	6b 01       	movw	r12, r22
     432:	7c 01       	movw	r14, r24
     434:	20 e0       	ldi	r18, 0x00	; 0
     436:	30 e0       	ldi	r19, 0x00	; 0
     438:	46 e9       	ldi	r20, 0x96	; 150
     43a:	53 e4       	ldi	r21, 0x43	; 67
     43c:	0e 94 af 0d 	call	0x1b5e	; 0x1b5e <__gesf2>
     440:	18 16       	cp	r1, r24
     442:	34 f0       	brlt	.+12     	; 0x450 <__LOCK_REGION_LENGTH__+0x50>
     444:	c7 01       	movw	r24, r14
     446:	b6 01       	movw	r22, r12
     448:	0e 94 f5 0c 	call	0x19ea	; 0x19ea <__fixunssfsi>
     44c:	cb 01       	movw	r24, r22
     44e:	02 c0       	rjmp	.+4      	; 0x454 <__LOCK_REGION_LENGTH__+0x54>
     450:	8c e2       	ldi	r24, 0x2C	; 44
     452:	91 e0       	ldi	r25, 0x01	; 1
     454:	ff 90       	pop	r15
     456:	ef 90       	pop	r14
     458:	df 90       	pop	r13
     45a:	cf 90       	pop	r12
     45c:	08 95       	ret

0000045e <_Z5humidi>:
     45e:	8f 92       	push	r8
     460:	9f 92       	push	r9
     462:	af 92       	push	r10
     464:	bf 92       	push	r11
     466:	cf 92       	push	r12
     468:	df 92       	push	r13
     46a:	ef 92       	push	r14
     46c:	ff 92       	push	r15
     46e:	bc 01       	movw	r22, r24
     470:	99 0f       	add	r25, r25
     472:	88 0b       	sbc	r24, r24
     474:	99 0b       	sbc	r25, r25
     476:	0e 94 23 0d 	call	0x1a46	; 0x1a46 <__floatsisf>
     47a:	20 e0       	ldi	r18, 0x00	; 0
     47c:	30 e0       	ldi	r19, 0x00	; 0
     47e:	40 ea       	ldi	r20, 0xA0	; 160
     480:	5b e3       	ldi	r21, 0x3B	; 59
     482:	0e 94 fe 0d 	call	0x1bfc	; 0x1bfc <__mulsf3>
     486:	6b 01       	movw	r12, r22
     488:	7c 01       	movw	r14, r24
     48a:	20 e0       	ldi	r18, 0x00	; 0
     48c:	30 e0       	ldi	r19, 0x00	; 0
     48e:	40 e8       	ldi	r20, 0x80	; 128
     490:	50 e4       	ldi	r21, 0x40	; 64
     492:	0e 94 61 0e 	call	0x1cc2	; 0x1cc2 <pow>
     496:	20 e5       	ldi	r18, 0x50	; 80
     498:	3c ef       	ldi	r19, 0xFC	; 252
     49a:	48 e4       	ldi	r20, 0x48	; 72
     49c:	5f e3       	ldi	r21, 0x3F	; 63
     49e:	0e 94 fe 0d 	call	0x1bfc	; 0x1bfc <__mulsf3>
     4a2:	4b 01       	movw	r8, r22
     4a4:	5c 01       	movw	r10, r24
     4a6:	20 e0       	ldi	r18, 0x00	; 0
     4a8:	30 e0       	ldi	r19, 0x00	; 0
     4aa:	40 e4       	ldi	r20, 0x40	; 64
     4ac:	50 e4       	ldi	r21, 0x40	; 64
     4ae:	c7 01       	movw	r24, r14
     4b0:	b6 01       	movw	r22, r12
     4b2:	0e 94 61 0e 	call	0x1cc2	; 0x1cc2 <pow>
     4b6:	28 ee       	ldi	r18, 0xE8	; 232
     4b8:	3a e6       	ldi	r19, 0x6A	; 106
     4ba:	40 e1       	ldi	r20, 0x10	; 16
     4bc:	51 e4       	ldi	r21, 0x41	; 65
     4be:	0e 94 fe 0d 	call	0x1bfc	; 0x1bfc <__mulsf3>
     4c2:	9b 01       	movw	r18, r22
     4c4:	ac 01       	movw	r20, r24
     4c6:	c5 01       	movw	r24, r10
     4c8:	b4 01       	movw	r22, r8
     4ca:	0e 94 28 0c 	call	0x1850	; 0x1850 <__subsf3>
     4ce:	4b 01       	movw	r8, r22
     4d0:	5c 01       	movw	r10, r24
     4d2:	2a e4       	ldi	r18, 0x4A	; 74
     4d4:	3c e0       	ldi	r19, 0x0C	; 12
     4d6:	41 e2       	ldi	r20, 0x21	; 33
     4d8:	52 e4       	ldi	r21, 0x42	; 66
     4da:	c7 01       	movw	r24, r14
     4dc:	b6 01       	movw	r22, r12
     4de:	0e 94 fe 0d 	call	0x1bfc	; 0x1bfc <__mulsf3>
     4e2:	9b 01       	movw	r18, r22
     4e4:	ac 01       	movw	r20, r24
     4e6:	c7 01       	movw	r24, r14
     4e8:	b6 01       	movw	r22, r12
     4ea:	0e 94 fe 0d 	call	0x1bfc	; 0x1bfc <__mulsf3>
     4ee:	9b 01       	movw	r18, r22
     4f0:	ac 01       	movw	r20, r24
     4f2:	c5 01       	movw	r24, r10
     4f4:	b4 01       	movw	r22, r8
     4f6:	0e 94 29 0c 	call	0x1852	; 0x1852 <__addsf3>
     4fa:	4b 01       	movw	r8, r22
     4fc:	5c 01       	movw	r10, r24
     4fe:	28 e6       	ldi	r18, 0x68	; 104
     500:	31 e9       	ldi	r19, 0x91	; 145
     502:	4d e3       	ldi	r20, 0x3D	; 61
     504:	52 e4       	ldi	r21, 0x42	; 66
     506:	c7 01       	movw	r24, r14
     508:	b6 01       	movw	r22, r12
     50a:	0e 94 fe 0d 	call	0x1bfc	; 0x1bfc <__mulsf3>
     50e:	9b 01       	movw	r18, r22
     510:	ac 01       	movw	r20, r24
     512:	c5 01       	movw	r24, r10
     514:	b4 01       	movw	r22, r8
     516:	0e 94 28 0c 	call	0x1850	; 0x1850 <__subsf3>
     51a:	27 e7       	ldi	r18, 0x77	; 119
     51c:	3e eb       	ldi	r19, 0xBE	; 190
     51e:	4c ea       	ldi	r20, 0xAC	; 172
     520:	51 e4       	ldi	r21, 0x41	; 65
     522:	0e 94 29 0c 	call	0x1852	; 0x1852 <__addsf3>
     526:	4b 01       	movw	r8, r22
     528:	5c 01       	movw	r10, r24
     52a:	22 e5       	ldi	r18, 0x52	; 82
     52c:	38 eb       	ldi	r19, 0xB8	; 184
     52e:	4e e7       	ldi	r20, 0x7E	; 126
     530:	50 e4       	ldi	r21, 0x40	; 64
     532:	c7 01       	movw	r24, r14
     534:	b6 01       	movw	r22, r12
     536:	0e 94 af 0d 	call	0x1b5e	; 0x1b5e <__gesf2>
     53a:	18 16       	cp	r1, r24
     53c:	34 f0       	brlt	.+12     	; 0x54a <_Z5humidi+0xec>
     53e:	c5 01       	movw	r24, r10
     540:	b4 01       	movw	r22, r8
     542:	0e 94 f5 0c 	call	0x19ea	; 0x19ea <__fixunssfsi>
     546:	cb 01       	movw	r24, r22
     548:	02 c0       	rjmp	.+4      	; 0x54e <_Z5humidi+0xf0>
     54a:	84 e6       	ldi	r24, 0x64	; 100
     54c:	90 e0       	ldi	r25, 0x00	; 0
     54e:	ff 90       	pop	r15
     550:	ef 90       	pop	r14
     552:	df 90       	pop	r13
     554:	cf 90       	pop	r12
     556:	bf 90       	pop	r11
     558:	af 90       	pop	r10
     55a:	9f 90       	pop	r9
     55c:	8f 90       	pop	r8
     55e:	08 95       	ret

00000560 <_Z10adc_to_Luxj>:
     560:	bc 01       	movw	r22, r24
     562:	80 e0       	ldi	r24, 0x00	; 0
     564:	90 e0       	ldi	r25, 0x00	; 0
     566:	0e 94 21 0d 	call	0x1a42	; 0x1a42 <__floatunsisf>
     56a:	20 e0       	ldi	r18, 0x00	; 0
     56c:	30 e0       	ldi	r19, 0x00	; 0
     56e:	40 ea       	ldi	r20, 0xA0	; 160
     570:	5b e3       	ldi	r21, 0x3B	; 59
     572:	0e 94 fe 0d 	call	0x1bfc	; 0x1bfc <__mulsf3>
     576:	9b 01       	movw	r18, r22
     578:	ac 01       	movw	r20, r24
     57a:	60 e0       	ldi	r22, 0x00	; 0
     57c:	78 e9       	ldi	r23, 0x98	; 152
     57e:	87 eb       	ldi	r24, 0xB7	; 183
     580:	96 e4       	ldi	r25, 0x46	; 70
     582:	0e 94 8d 0c 	call	0x191a	; 0x191a <__divsf3>
     586:	20 e0       	ldi	r18, 0x00	; 0
     588:	30 ee       	ldi	r19, 0xE0	; 224
     58a:	42 e9       	ldi	r20, 0x92	; 146
     58c:	55 e4       	ldi	r21, 0x45	; 69
     58e:	0e 94 28 0c 	call	0x1850	; 0x1850 <__subsf3>
     592:	0e 94 b3 0d 	call	0x1b66	; 0x1b66 <log10>
     596:	26 e9       	ldi	r18, 0x96	; 150
     598:	33 e4       	ldi	r19, 0x43	; 67
     59a:	43 e9       	ldi	r20, 0x93	; 147
     59c:	50 e4       	ldi	r21, 0x40	; 64
     59e:	0e 94 28 0c 	call	0x1850	; 0x1850 <__subsf3>
     5a2:	2d ec       	ldi	r18, 0xCD	; 205
     5a4:	3c ec       	ldi	r19, 0xCC	; 204
     5a6:	4c e4       	ldi	r20, 0x4C	; 76
     5a8:	5f e3       	ldi	r21, 0x3F	; 63
     5aa:	0e 94 8d 0c 	call	0x191a	; 0x191a <__divsf3>
     5ae:	9b 01       	movw	r18, r22
     5b0:	ac 01       	movw	r20, r24
     5b2:	60 e0       	ldi	r22, 0x00	; 0
     5b4:	70 e0       	ldi	r23, 0x00	; 0
     5b6:	80 e8       	ldi	r24, 0x80	; 128
     5b8:	9f e3       	ldi	r25, 0x3F	; 63
     5ba:	0e 94 28 0c 	call	0x1850	; 0x1850 <__subsf3>
     5be:	9b 01       	movw	r18, r22
     5c0:	ac 01       	movw	r20, r24
     5c2:	60 e0       	ldi	r22, 0x00	; 0
     5c4:	70 e0       	ldi	r23, 0x00	; 0
     5c6:	80 e2       	ldi	r24, 0x20	; 32
     5c8:	91 e4       	ldi	r25, 0x41	; 65
     5ca:	0e 94 61 0e 	call	0x1cc2	; 0x1cc2 <pow>
     5ce:	0e 94 f5 0c 	call	0x19ea	; 0x19ea <__fixunssfsi>
     5d2:	cb 01       	movw	r24, r22
     5d4:	08 95       	ret

000005d6 <_Z15adc_to_cel_LM35j>:
     5d6:	bc 01       	movw	r22, r24
     5d8:	80 e0       	ldi	r24, 0x00	; 0
     5da:	90 e0       	ldi	r25, 0x00	; 0
     5dc:	0e 94 21 0d 	call	0x1a42	; 0x1a42 <__floatunsisf>
     5e0:	20 e0       	ldi	r18, 0x00	; 0
     5e2:	30 e0       	ldi	r19, 0x00	; 0
     5e4:	40 e8       	ldi	r20, 0x80	; 128
     5e6:	5e e3       	ldi	r21, 0x3E	; 62
     5e8:	0e 94 fe 0d 	call	0x1bfc	; 0x1bfc <__mulsf3>
     5ec:	20 e0       	ldi	r18, 0x00	; 0
     5ee:	30 e0       	ldi	r19, 0x00	; 0
     5f0:	40 ea       	ldi	r20, 0xA0	; 160
     5f2:	5b e3       	ldi	r21, 0x3B	; 59
     5f4:	0e 94 fe 0d 	call	0x1bfc	; 0x1bfc <__mulsf3>
     5f8:	20 e0       	ldi	r18, 0x00	; 0
     5fa:	30 e0       	ldi	r19, 0x00	; 0
     5fc:	48 ec       	ldi	r20, 0xC8	; 200
     5fe:	52 e4       	ldi	r21, 0x42	; 66
     600:	0e 94 fe 0d 	call	0x1bfc	; 0x1bfc <__mulsf3>
     604:	0e 94 f5 0c 	call	0x19ea	; 0x19ea <__fixunssfsi>
     608:	cb 01       	movw	r24, r22
     60a:	08 95       	ret

0000060c <_Z10GSBT11_ppmi>:
     60c:	8f 92       	push	r8
     60e:	9f 92       	push	r9
     610:	af 92       	push	r10
     612:	bf 92       	push	r11
     614:	cf 92       	push	r12
     616:	df 92       	push	r13
     618:	ef 92       	push	r14
     61a:	ff 92       	push	r15
     61c:	bc 01       	movw	r22, r24
     61e:	99 0f       	add	r25, r25
     620:	88 0b       	sbc	r24, r24
     622:	99 0b       	sbc	r25, r25
     624:	0e 94 23 0d 	call	0x1a46	; 0x1a46 <__floatsisf>
     628:	20 e0       	ldi	r18, 0x00	; 0
     62a:	30 e0       	ldi	r19, 0x00	; 0
     62c:	40 ea       	ldi	r20, 0xA0	; 160
     62e:	5b e3       	ldi	r21, 0x3B	; 59
     630:	0e 94 fe 0d 	call	0x1bfc	; 0x1bfc <__mulsf3>
     634:	20 e0       	ldi	r18, 0x00	; 0
     636:	30 e0       	ldi	r19, 0x00	; 0
     638:	40 e4       	ldi	r20, 0x40	; 64
     63a:	50 e4       	ldi	r21, 0x40	; 64
     63c:	0e 94 8d 0c 	call	0x191a	; 0x191a <__divsf3>
     640:	6b 01       	movw	r12, r22
     642:	7c 01       	movw	r14, r24
     644:	2b e3       	ldi	r18, 0x3B	; 59
     646:	3f ed       	ldi	r19, 0xDF	; 223
     648:	4f ed       	ldi	r20, 0xDF	; 223
     64a:	50 e4       	ldi	r21, 0x40	; 64
     64c:	0e 94 fe 0d 	call	0x1bfc	; 0x1bfc <__mulsf3>
     650:	23 ec       	ldi	r18, 0xC3	; 195
     652:	35 ef       	ldi	r19, 0xF5	; 245
     654:	4c eb       	ldi	r20, 0xBC	; 188
     656:	50 e4       	ldi	r21, 0x40	; 64
     658:	0e 94 28 0c 	call	0x1850	; 0x1850 <__subsf3>
     65c:	4b 01       	movw	r8, r22
     65e:	5c 01       	movw	r10, r24
     660:	23 e2       	ldi	r18, 0x23	; 35
     662:	3b ed       	ldi	r19, 0xDB	; 219
     664:	49 ea       	ldi	r20, 0xA9	; 169
     666:	5f e3       	ldi	r21, 0x3F	; 63
     668:	c7 01       	movw	r24, r14
     66a:	b6 01       	movw	r22, r12
     66c:	0e 94 fe 0d 	call	0x1bfc	; 0x1bfc <__mulsf3>
     670:	9b 01       	movw	r18, r22
     672:	ac 01       	movw	r20, r24
     674:	c7 01       	movw	r24, r14
     676:	b6 01       	movw	r22, r12
     678:	0e 94 fe 0d 	call	0x1bfc	; 0x1bfc <__mulsf3>
     67c:	9b 01       	movw	r18, r22
     67e:	ac 01       	movw	r20, r24
     680:	c5 01       	movw	r24, r10
     682:	b4 01       	movw	r22, r8
     684:	0e 94 28 0c 	call	0x1850	; 0x1850 <__subsf3>
     688:	9b 01       	movw	r18, r22
     68a:	ac 01       	movw	r20, r24
     68c:	60 e0       	ldi	r22, 0x00	; 0
     68e:	70 e0       	ldi	r23, 0x00	; 0
     690:	80 e2       	ldi	r24, 0x20	; 32
     692:	91 e4       	ldi	r25, 0x41	; 65
     694:	0e 94 61 0e 	call	0x1cc2	; 0x1cc2 <pow>
     698:	0e 94 f5 0c 	call	0x19ea	; 0x19ea <__fixunssfsi>
     69c:	cb 01       	movw	r24, r22
     69e:	ff 90       	pop	r15
     6a0:	ef 90       	pop	r14
     6a2:	df 90       	pop	r13
     6a4:	cf 90       	pop	r12
     6a6:	bf 90       	pop	r11
     6a8:	af 90       	pop	r10
     6aa:	9f 90       	pop	r9
     6ac:	8f 90       	pop	r8
     6ae:	08 95       	ret

000006b0 <_Z11IIR_LPF_psdd>:
     6b0:	cf 92       	push	r12
     6b2:	df 92       	push	r13
     6b4:	ef 92       	push	r14
     6b6:	ff 92       	push	r15
     6b8:	0f 93       	push	r16
     6ba:	1f 93       	push	r17
     6bc:	cf 93       	push	r28
     6be:	df 93       	push	r29
     6c0:	60 93 40 02 	sts	0x0240, r22	; 0x800240 <IIR_input_psd>
     6c4:	70 93 41 02 	sts	0x0241, r23	; 0x800241 <IIR_input_psd+0x1>
     6c8:	80 93 42 02 	sts	0x0242, r24	; 0x800242 <IIR_input_psd+0x2>
     6cc:	90 93 43 02 	sts	0x0243, r25	; 0x800243 <IIR_input_psd+0x3>
     6d0:	10 92 34 02 	sts	0x0234, r1	; 0x800234 <IIR_psd>
     6d4:	10 92 35 02 	sts	0x0235, r1	; 0x800235 <IIR_psd+0x1>
     6d8:	10 92 36 02 	sts	0x0236, r1	; 0x800236 <IIR_psd+0x2>
     6dc:	10 92 37 02 	sts	0x0237, r1	; 0x800237 <IIR_psd+0x3>
     6e0:	c0 e0       	ldi	r28, 0x00	; 0
     6e2:	d0 e0       	ldi	r29, 0x00	; 0
     6e4:	c3 30       	cpi	r28, 0x03	; 3
     6e6:	d1 05       	cpc	r29, r1
     6e8:	3c f5       	brge	.+78     	; 0x738 <_Z11IIR_LPF_psdd+0x88>
     6ea:	9e 01       	movw	r18, r28
     6ec:	22 0f       	add	r18, r18
     6ee:	33 1f       	adc	r19, r19
     6f0:	22 0f       	add	r18, r18
     6f2:	33 1f       	adc	r19, r19
     6f4:	f9 01       	movw	r30, r18
     6f6:	ea 57       	subi	r30, 0x7A	; 122
     6f8:	fe 4f       	sbci	r31, 0xFE	; 254
     6fa:	60 81       	ld	r22, Z
     6fc:	71 81       	ldd	r23, Z+1	; 0x01
     6fe:	82 81       	ldd	r24, Z+2	; 0x02
     700:	93 81       	ldd	r25, Z+3	; 0x03
     702:	f9 01       	movw	r30, r18
     704:	e0 5c       	subi	r30, 0xC0	; 192
     706:	fd 4f       	sbci	r31, 0xFD	; 253
     708:	20 81       	ld	r18, Z
     70a:	31 81       	ldd	r19, Z+1	; 0x01
     70c:	42 81       	ldd	r20, Z+2	; 0x02
     70e:	53 81       	ldd	r21, Z+3	; 0x03
     710:	04 e3       	ldi	r16, 0x34	; 52
     712:	12 e0       	ldi	r17, 0x02	; 2
     714:	f8 01       	movw	r30, r16
     716:	c0 80       	ld	r12, Z
     718:	d1 80       	ldd	r13, Z+1	; 0x01
     71a:	e2 80       	ldd	r14, Z+2	; 0x02
     71c:	f3 80       	ldd	r15, Z+3	; 0x03
     71e:	0e 94 fe 0d 	call	0x1bfc	; 0x1bfc <__mulsf3>
     722:	a7 01       	movw	r20, r14
     724:	96 01       	movw	r18, r12
     726:	0e 94 29 0c 	call	0x1852	; 0x1852 <__addsf3>
     72a:	f8 01       	movw	r30, r16
     72c:	60 83       	st	Z, r22
     72e:	71 83       	std	Z+1, r23	; 0x01
     730:	82 83       	std	Z+2, r24	; 0x02
     732:	93 83       	std	Z+3, r25	; 0x03
     734:	21 96       	adiw	r28, 0x01	; 1
     736:	d6 cf       	rjmp	.-84     	; 0x6e4 <_Z11IIR_LPF_psdd+0x34>
     738:	c1 e0       	ldi	r28, 0x01	; 1
     73a:	d0 e0       	ldi	r29, 0x00	; 0
     73c:	c3 30       	cpi	r28, 0x03	; 3
     73e:	d1 05       	cpc	r29, r1
     740:	4c f5       	brge	.+82     	; 0x794 <_Z11IIR_LPF_psdd+0xe4>
     742:	9e 01       	movw	r18, r28
     744:	22 0f       	add	r18, r18
     746:	33 1f       	adc	r19, r19
     748:	22 0f       	add	r18, r18
     74a:	33 1f       	adc	r19, r19
     74c:	f9 01       	movw	r30, r18
     74e:	e6 58       	subi	r30, 0x86	; 134
     750:	fe 4f       	sbci	r31, 0xFE	; 254
     752:	60 81       	ld	r22, Z
     754:	71 81       	ldd	r23, Z+1	; 0x01
     756:	82 81       	ldd	r24, Z+2	; 0x02
     758:	93 81       	ldd	r25, Z+3	; 0x03
     75a:	04 e3       	ldi	r16, 0x34	; 52
     75c:	12 e0       	ldi	r17, 0x02	; 2
     75e:	f9 01       	movw	r30, r18
     760:	ec 5c       	subi	r30, 0xCC	; 204
     762:	fd 4f       	sbci	r31, 0xFD	; 253
     764:	20 81       	ld	r18, Z
     766:	31 81       	ldd	r19, Z+1	; 0x01
     768:	42 81       	ldd	r20, Z+2	; 0x02
     76a:	53 81       	ldd	r21, Z+3	; 0x03
     76c:	f8 01       	movw	r30, r16
     76e:	c0 80       	ld	r12, Z
     770:	d1 80       	ldd	r13, Z+1	; 0x01
     772:	e2 80       	ldd	r14, Z+2	; 0x02
     774:	f3 80       	ldd	r15, Z+3	; 0x03
     776:	0e 94 fe 0d 	call	0x1bfc	; 0x1bfc <__mulsf3>
     77a:	9b 01       	movw	r18, r22
     77c:	ac 01       	movw	r20, r24
     77e:	c7 01       	movw	r24, r14
     780:	b6 01       	movw	r22, r12
     782:	0e 94 28 0c 	call	0x1850	; 0x1850 <__subsf3>
     786:	f8 01       	movw	r30, r16
     788:	60 83       	st	Z, r22
     78a:	71 83       	std	Z+1, r23	; 0x01
     78c:	82 83       	std	Z+2, r24	; 0x02
     78e:	93 83       	std	Z+3, r25	; 0x03
     790:	21 96       	adiw	r28, 0x01	; 1
     792:	d4 cf       	rjmp	.-88     	; 0x73c <_Z11IIR_LPF_psdd+0x8c>
     794:	e4 e3       	ldi	r30, 0x34	; 52
     796:	f2 e0       	ldi	r31, 0x02	; 2
     798:	84 81       	ldd	r24, Z+4	; 0x04
     79a:	95 81       	ldd	r25, Z+5	; 0x05
     79c:	a6 81       	ldd	r26, Z+6	; 0x06
     79e:	b7 81       	ldd	r27, Z+7	; 0x07
     7a0:	40 81       	ld	r20, Z
     7a2:	51 81       	ldd	r21, Z+1	; 0x01
     7a4:	62 81       	ldd	r22, Z+2	; 0x02
     7a6:	73 81       	ldd	r23, Z+3	; 0x03
     7a8:	44 83       	std	Z+4, r20	; 0x04
     7aa:	55 83       	std	Z+5, r21	; 0x05
     7ac:	66 83       	std	Z+6, r22	; 0x06
     7ae:	77 83       	std	Z+7, r23	; 0x07
     7b0:	80 87       	std	Z+8, r24	; 0x08
     7b2:	91 87       	std	Z+9, r25	; 0x09
     7b4:	a2 87       	std	Z+10, r26	; 0x0a
     7b6:	b3 87       	std	Z+11, r27	; 0x0b
     7b8:	a0 e4       	ldi	r26, 0x40	; 64
     7ba:	b2 e0       	ldi	r27, 0x02	; 2
     7bc:	14 96       	adiw	r26, 0x04	; 4
     7be:	4d 91       	ld	r20, X+
     7c0:	5d 91       	ld	r21, X+
     7c2:	6d 91       	ld	r22, X+
     7c4:	7c 91       	ld	r23, X
     7c6:	17 97       	sbiw	r26, 0x07	; 7
     7c8:	0d 91       	ld	r16, X+
     7ca:	1d 91       	ld	r17, X+
     7cc:	2d 91       	ld	r18, X+
     7ce:	3c 91       	ld	r19, X
     7d0:	13 97       	sbiw	r26, 0x03	; 3
     7d2:	14 96       	adiw	r26, 0x04	; 4
     7d4:	0d 93       	st	X+, r16
     7d6:	1d 93       	st	X+, r17
     7d8:	2d 93       	st	X+, r18
     7da:	3c 93       	st	X, r19
     7dc:	17 97       	sbiw	r26, 0x07	; 7
     7de:	18 96       	adiw	r26, 0x08	; 8
     7e0:	4d 93       	st	X+, r20
     7e2:	5d 93       	st	X+, r21
     7e4:	6d 93       	st	X+, r22
     7e6:	7c 93       	st	X, r23
     7e8:	1b 97       	sbiw	r26, 0x0b	; 11
     7ea:	60 81       	ld	r22, Z
     7ec:	71 81       	ldd	r23, Z+1	; 0x01
     7ee:	82 81       	ldd	r24, Z+2	; 0x02
     7f0:	93 81       	ldd	r25, Z+3	; 0x03
     7f2:	df 91       	pop	r29
     7f4:	cf 91       	pop	r28
     7f6:	1f 91       	pop	r17
     7f8:	0f 91       	pop	r16
     7fa:	ff 90       	pop	r15
     7fc:	ef 90       	pop	r14
     7fe:	df 90       	pop	r13
     800:	cf 90       	pop	r12
     802:	08 95       	ret

00000804 <_Z11IIR_LPF_humd>:
     804:	cf 92       	push	r12
     806:	df 92       	push	r13
     808:	ef 92       	push	r14
     80a:	ff 92       	push	r15
     80c:	0f 93       	push	r16
     80e:	1f 93       	push	r17
     810:	cf 93       	push	r28
     812:	df 93       	push	r29
     814:	60 93 28 02 	sts	0x0228, r22	; 0x800228 <IIR_input_hum>
     818:	70 93 29 02 	sts	0x0229, r23	; 0x800229 <IIR_input_hum+0x1>
     81c:	80 93 2a 02 	sts	0x022A, r24	; 0x80022a <IIR_input_hum+0x2>
     820:	90 93 2b 02 	sts	0x022B, r25	; 0x80022b <IIR_input_hum+0x3>
     824:	10 92 1c 02 	sts	0x021C, r1	; 0x80021c <IIR_hum>
     828:	10 92 1d 02 	sts	0x021D, r1	; 0x80021d <IIR_hum+0x1>
     82c:	10 92 1e 02 	sts	0x021E, r1	; 0x80021e <IIR_hum+0x2>
     830:	10 92 1f 02 	sts	0x021F, r1	; 0x80021f <IIR_hum+0x3>
     834:	c0 e0       	ldi	r28, 0x00	; 0
     836:	d0 e0       	ldi	r29, 0x00	; 0
     838:	c3 30       	cpi	r28, 0x03	; 3
     83a:	d1 05       	cpc	r29, r1
     83c:	34 f5       	brge	.+76     	; 0x88a <_Z11IIR_LPF_humd+0x86>
     83e:	9e 01       	movw	r18, r28
     840:	22 0f       	add	r18, r18
     842:	33 1f       	adc	r19, r19
     844:	22 0f       	add	r18, r18
     846:	33 1f       	adc	r19, r19
     848:	f9 01       	movw	r30, r18
     84a:	e2 59       	subi	r30, 0x92	; 146
     84c:	fe 4f       	sbci	r31, 0xFE	; 254
     84e:	60 81       	ld	r22, Z
     850:	71 81       	ldd	r23, Z+1	; 0x01
     852:	82 81       	ldd	r24, Z+2	; 0x02
     854:	93 81       	ldd	r25, Z+3	; 0x03
     856:	f9 01       	movw	r30, r18
     858:	e8 5d       	subi	r30, 0xD8	; 216
     85a:	fd 4f       	sbci	r31, 0xFD	; 253
     85c:	20 81       	ld	r18, Z
     85e:	31 81       	ldd	r19, Z+1	; 0x01
     860:	42 81       	ldd	r20, Z+2	; 0x02
     862:	53 81       	ldd	r21, Z+3	; 0x03
     864:	0c e1       	ldi	r16, 0x1C	; 28
     866:	12 e0       	ldi	r17, 0x02	; 2
     868:	f8 01       	movw	r30, r16
     86a:	c0 80       	ld	r12, Z
     86c:	d1 80       	ldd	r13, Z+1	; 0x01
     86e:	e2 80       	ldd	r14, Z+2	; 0x02
     870:	f3 80       	ldd	r15, Z+3	; 0x03
     872:	0e 94 fe 0d 	call	0x1bfc	; 0x1bfc <__mulsf3>
     876:	a7 01       	movw	r20, r14
     878:	96 01       	movw	r18, r12
     87a:	eb d7       	rcall	.+4054   	; 0x1852 <__addsf3>
     87c:	f8 01       	movw	r30, r16
     87e:	60 83       	st	Z, r22
     880:	71 83       	std	Z+1, r23	; 0x01
     882:	82 83       	std	Z+2, r24	; 0x02
     884:	93 83       	std	Z+3, r25	; 0x03
     886:	21 96       	adiw	r28, 0x01	; 1
     888:	d7 cf       	rjmp	.-82     	; 0x838 <_Z11IIR_LPF_humd+0x34>
     88a:	c1 e0       	ldi	r28, 0x01	; 1
     88c:	d0 e0       	ldi	r29, 0x00	; 0
     88e:	c3 30       	cpi	r28, 0x03	; 3
     890:	d1 05       	cpc	r29, r1
     892:	44 f5       	brge	.+80     	; 0x8e4 <_Z11IIR_LPF_humd+0xe0>
     894:	9e 01       	movw	r18, r28
     896:	22 0f       	add	r18, r18
     898:	33 1f       	adc	r19, r19
     89a:	22 0f       	add	r18, r18
     89c:	33 1f       	adc	r19, r19
     89e:	f9 01       	movw	r30, r18
     8a0:	ee 59       	subi	r30, 0x9E	; 158
     8a2:	fe 4f       	sbci	r31, 0xFE	; 254
     8a4:	60 81       	ld	r22, Z
     8a6:	71 81       	ldd	r23, Z+1	; 0x01
     8a8:	82 81       	ldd	r24, Z+2	; 0x02
     8aa:	93 81       	ldd	r25, Z+3	; 0x03
     8ac:	0c e1       	ldi	r16, 0x1C	; 28
     8ae:	12 e0       	ldi	r17, 0x02	; 2
     8b0:	f9 01       	movw	r30, r18
     8b2:	e4 5e       	subi	r30, 0xE4	; 228
     8b4:	fd 4f       	sbci	r31, 0xFD	; 253
     8b6:	20 81       	ld	r18, Z
     8b8:	31 81       	ldd	r19, Z+1	; 0x01
     8ba:	42 81       	ldd	r20, Z+2	; 0x02
     8bc:	53 81       	ldd	r21, Z+3	; 0x03
     8be:	f8 01       	movw	r30, r16
     8c0:	c0 80       	ld	r12, Z
     8c2:	d1 80       	ldd	r13, Z+1	; 0x01
     8c4:	e2 80       	ldd	r14, Z+2	; 0x02
     8c6:	f3 80       	ldd	r15, Z+3	; 0x03
     8c8:	0e 94 fe 0d 	call	0x1bfc	; 0x1bfc <__mulsf3>
     8cc:	9b 01       	movw	r18, r22
     8ce:	ac 01       	movw	r20, r24
     8d0:	c7 01       	movw	r24, r14
     8d2:	b6 01       	movw	r22, r12
     8d4:	bd d7       	rcall	.+3962   	; 0x1850 <__subsf3>
     8d6:	f8 01       	movw	r30, r16
     8d8:	60 83       	st	Z, r22
     8da:	71 83       	std	Z+1, r23	; 0x01
     8dc:	82 83       	std	Z+2, r24	; 0x02
     8de:	93 83       	std	Z+3, r25	; 0x03
     8e0:	21 96       	adiw	r28, 0x01	; 1
     8e2:	d5 cf       	rjmp	.-86     	; 0x88e <_Z11IIR_LPF_humd+0x8a>
     8e4:	ec e1       	ldi	r30, 0x1C	; 28
     8e6:	f2 e0       	ldi	r31, 0x02	; 2
     8e8:	84 81       	ldd	r24, Z+4	; 0x04
     8ea:	95 81       	ldd	r25, Z+5	; 0x05
     8ec:	a6 81       	ldd	r26, Z+6	; 0x06
     8ee:	b7 81       	ldd	r27, Z+7	; 0x07
     8f0:	40 81       	ld	r20, Z
     8f2:	51 81       	ldd	r21, Z+1	; 0x01
     8f4:	62 81       	ldd	r22, Z+2	; 0x02
     8f6:	73 81       	ldd	r23, Z+3	; 0x03
     8f8:	44 83       	std	Z+4, r20	; 0x04
     8fa:	55 83       	std	Z+5, r21	; 0x05
     8fc:	66 83       	std	Z+6, r22	; 0x06
     8fe:	77 83       	std	Z+7, r23	; 0x07
     900:	80 87       	std	Z+8, r24	; 0x08
     902:	91 87       	std	Z+9, r25	; 0x09
     904:	a2 87       	std	Z+10, r26	; 0x0a
     906:	b3 87       	std	Z+11, r27	; 0x0b
     908:	a8 e2       	ldi	r26, 0x28	; 40
     90a:	b2 e0       	ldi	r27, 0x02	; 2
     90c:	14 96       	adiw	r26, 0x04	; 4
     90e:	4d 91       	ld	r20, X+
     910:	5d 91       	ld	r21, X+
     912:	6d 91       	ld	r22, X+
     914:	7c 91       	ld	r23, X
     916:	17 97       	sbiw	r26, 0x07	; 7
     918:	0d 91       	ld	r16, X+
     91a:	1d 91       	ld	r17, X+
     91c:	2d 91       	ld	r18, X+
     91e:	3c 91       	ld	r19, X
     920:	13 97       	sbiw	r26, 0x03	; 3
     922:	14 96       	adiw	r26, 0x04	; 4
     924:	0d 93       	st	X+, r16
     926:	1d 93       	st	X+, r17
     928:	2d 93       	st	X+, r18
     92a:	3c 93       	st	X, r19
     92c:	17 97       	sbiw	r26, 0x07	; 7
     92e:	18 96       	adiw	r26, 0x08	; 8
     930:	4d 93       	st	X+, r20
     932:	5d 93       	st	X+, r21
     934:	6d 93       	st	X+, r22
     936:	7c 93       	st	X, r23
     938:	1b 97       	sbiw	r26, 0x0b	; 11
     93a:	60 81       	ld	r22, Z
     93c:	71 81       	ldd	r23, Z+1	; 0x01
     93e:	82 81       	ldd	r24, Z+2	; 0x02
     940:	93 81       	ldd	r25, Z+3	; 0x03
     942:	df 91       	pop	r29
     944:	cf 91       	pop	r28
     946:	1f 91       	pop	r17
     948:	0f 91       	pop	r16
     94a:	ff 90       	pop	r15
     94c:	ef 90       	pop	r14
     94e:	df 90       	pop	r13
     950:	cf 90       	pop	r12
     952:	08 95       	ret

00000954 <_Z10IIR_LPF_GSd>:
     954:	cf 92       	push	r12
     956:	df 92       	push	r13
     958:	ef 92       	push	r14
     95a:	ff 92       	push	r15
     95c:	0f 93       	push	r16
     95e:	1f 93       	push	r17
     960:	cf 93       	push	r28
     962:	df 93       	push	r29
     964:	60 93 10 02 	sts	0x0210, r22	; 0x800210 <IIR_input_GS>
     968:	70 93 11 02 	sts	0x0211, r23	; 0x800211 <IIR_input_GS+0x1>
     96c:	80 93 12 02 	sts	0x0212, r24	; 0x800212 <IIR_input_GS+0x2>
     970:	90 93 13 02 	sts	0x0213, r25	; 0x800213 <IIR_input_GS+0x3>
     974:	10 92 04 02 	sts	0x0204, r1	; 0x800204 <IIR_GS>
     978:	10 92 05 02 	sts	0x0205, r1	; 0x800205 <IIR_GS+0x1>
     97c:	10 92 06 02 	sts	0x0206, r1	; 0x800206 <IIR_GS+0x2>
     980:	10 92 07 02 	sts	0x0207, r1	; 0x800207 <IIR_GS+0x3>
     984:	c0 e0       	ldi	r28, 0x00	; 0
     986:	d0 e0       	ldi	r29, 0x00	; 0
     988:	c3 30       	cpi	r28, 0x03	; 3
     98a:	d1 05       	cpc	r29, r1
     98c:	34 f5       	brge	.+76     	; 0x9da <_Z10IIR_LPF_GSd+0x86>
     98e:	9e 01       	movw	r18, r28
     990:	22 0f       	add	r18, r18
     992:	33 1f       	adc	r19, r19
     994:	22 0f       	add	r18, r18
     996:	33 1f       	adc	r19, r19
     998:	f9 01       	movw	r30, r18
     99a:	ea 5a       	subi	r30, 0xAA	; 170
     99c:	fe 4f       	sbci	r31, 0xFE	; 254
     99e:	60 81       	ld	r22, Z
     9a0:	71 81       	ldd	r23, Z+1	; 0x01
     9a2:	82 81       	ldd	r24, Z+2	; 0x02
     9a4:	93 81       	ldd	r25, Z+3	; 0x03
     9a6:	f9 01       	movw	r30, r18
     9a8:	e0 5f       	subi	r30, 0xF0	; 240
     9aa:	fd 4f       	sbci	r31, 0xFD	; 253
     9ac:	20 81       	ld	r18, Z
     9ae:	31 81       	ldd	r19, Z+1	; 0x01
     9b0:	42 81       	ldd	r20, Z+2	; 0x02
     9b2:	53 81       	ldd	r21, Z+3	; 0x03
     9b4:	04 e0       	ldi	r16, 0x04	; 4
     9b6:	12 e0       	ldi	r17, 0x02	; 2
     9b8:	f8 01       	movw	r30, r16
     9ba:	c0 80       	ld	r12, Z
     9bc:	d1 80       	ldd	r13, Z+1	; 0x01
     9be:	e2 80       	ldd	r14, Z+2	; 0x02
     9c0:	f3 80       	ldd	r15, Z+3	; 0x03
     9c2:	0e 94 fe 0d 	call	0x1bfc	; 0x1bfc <__mulsf3>
     9c6:	a7 01       	movw	r20, r14
     9c8:	96 01       	movw	r18, r12
     9ca:	43 d7       	rcall	.+3718   	; 0x1852 <__addsf3>
     9cc:	f8 01       	movw	r30, r16
     9ce:	60 83       	st	Z, r22
     9d0:	71 83       	std	Z+1, r23	; 0x01
     9d2:	82 83       	std	Z+2, r24	; 0x02
     9d4:	93 83       	std	Z+3, r25	; 0x03
     9d6:	21 96       	adiw	r28, 0x01	; 1
     9d8:	d7 cf       	rjmp	.-82     	; 0x988 <_Z10IIR_LPF_GSd+0x34>
     9da:	c1 e0       	ldi	r28, 0x01	; 1
     9dc:	d0 e0       	ldi	r29, 0x00	; 0
     9de:	c3 30       	cpi	r28, 0x03	; 3
     9e0:	d1 05       	cpc	r29, r1
     9e2:	44 f5       	brge	.+80     	; 0xa34 <_Z10IIR_LPF_GSd+0xe0>
     9e4:	9e 01       	movw	r18, r28
     9e6:	22 0f       	add	r18, r18
     9e8:	33 1f       	adc	r19, r19
     9ea:	22 0f       	add	r18, r18
     9ec:	33 1f       	adc	r19, r19
     9ee:	f9 01       	movw	r30, r18
     9f0:	e6 5b       	subi	r30, 0xB6	; 182
     9f2:	fe 4f       	sbci	r31, 0xFE	; 254
     9f4:	60 81       	ld	r22, Z
     9f6:	71 81       	ldd	r23, Z+1	; 0x01
     9f8:	82 81       	ldd	r24, Z+2	; 0x02
     9fa:	93 81       	ldd	r25, Z+3	; 0x03
     9fc:	04 e0       	ldi	r16, 0x04	; 4
     9fe:	12 e0       	ldi	r17, 0x02	; 2
     a00:	f9 01       	movw	r30, r18
     a02:	ec 5f       	subi	r30, 0xFC	; 252
     a04:	fd 4f       	sbci	r31, 0xFD	; 253
     a06:	20 81       	ld	r18, Z
     a08:	31 81       	ldd	r19, Z+1	; 0x01
     a0a:	42 81       	ldd	r20, Z+2	; 0x02
     a0c:	53 81       	ldd	r21, Z+3	; 0x03
     a0e:	f8 01       	movw	r30, r16
     a10:	c0 80       	ld	r12, Z
     a12:	d1 80       	ldd	r13, Z+1	; 0x01
     a14:	e2 80       	ldd	r14, Z+2	; 0x02
     a16:	f3 80       	ldd	r15, Z+3	; 0x03
     a18:	0e 94 fe 0d 	call	0x1bfc	; 0x1bfc <__mulsf3>
     a1c:	9b 01       	movw	r18, r22
     a1e:	ac 01       	movw	r20, r24
     a20:	c7 01       	movw	r24, r14
     a22:	b6 01       	movw	r22, r12
     a24:	15 d7       	rcall	.+3626   	; 0x1850 <__subsf3>
     a26:	f8 01       	movw	r30, r16
     a28:	60 83       	st	Z, r22
     a2a:	71 83       	std	Z+1, r23	; 0x01
     a2c:	82 83       	std	Z+2, r24	; 0x02
     a2e:	93 83       	std	Z+3, r25	; 0x03
     a30:	21 96       	adiw	r28, 0x01	; 1
     a32:	d5 cf       	rjmp	.-86     	; 0x9de <_Z10IIR_LPF_GSd+0x8a>
     a34:	e4 e0       	ldi	r30, 0x04	; 4
     a36:	f2 e0       	ldi	r31, 0x02	; 2
     a38:	84 81       	ldd	r24, Z+4	; 0x04
     a3a:	95 81       	ldd	r25, Z+5	; 0x05
     a3c:	a6 81       	ldd	r26, Z+6	; 0x06
     a3e:	b7 81       	ldd	r27, Z+7	; 0x07
     a40:	40 81       	ld	r20, Z
     a42:	51 81       	ldd	r21, Z+1	; 0x01
     a44:	62 81       	ldd	r22, Z+2	; 0x02
     a46:	73 81       	ldd	r23, Z+3	; 0x03
     a48:	44 83       	std	Z+4, r20	; 0x04
     a4a:	55 83       	std	Z+5, r21	; 0x05
     a4c:	66 83       	std	Z+6, r22	; 0x06
     a4e:	77 83       	std	Z+7, r23	; 0x07
     a50:	80 87       	std	Z+8, r24	; 0x08
     a52:	91 87       	std	Z+9, r25	; 0x09
     a54:	a2 87       	std	Z+10, r26	; 0x0a
     a56:	b3 87       	std	Z+11, r27	; 0x0b
     a58:	a0 e1       	ldi	r26, 0x10	; 16
     a5a:	b2 e0       	ldi	r27, 0x02	; 2
     a5c:	14 96       	adiw	r26, 0x04	; 4
     a5e:	4d 91       	ld	r20, X+
     a60:	5d 91       	ld	r21, X+
     a62:	6d 91       	ld	r22, X+
     a64:	7c 91       	ld	r23, X
     a66:	17 97       	sbiw	r26, 0x07	; 7
     a68:	0d 91       	ld	r16, X+
     a6a:	1d 91       	ld	r17, X+
     a6c:	2d 91       	ld	r18, X+
     a6e:	3c 91       	ld	r19, X
     a70:	13 97       	sbiw	r26, 0x03	; 3
     a72:	14 96       	adiw	r26, 0x04	; 4
     a74:	0d 93       	st	X+, r16
     a76:	1d 93       	st	X+, r17
     a78:	2d 93       	st	X+, r18
     a7a:	3c 93       	st	X, r19
     a7c:	17 97       	sbiw	r26, 0x07	; 7
     a7e:	18 96       	adiw	r26, 0x08	; 8
     a80:	4d 93       	st	X+, r20
     a82:	5d 93       	st	X+, r21
     a84:	6d 93       	st	X+, r22
     a86:	7c 93       	st	X, r23
     a88:	1b 97       	sbiw	r26, 0x0b	; 11
     a8a:	60 81       	ld	r22, Z
     a8c:	71 81       	ldd	r23, Z+1	; 0x01
     a8e:	82 81       	ldd	r24, Z+2	; 0x02
     a90:	93 81       	ldd	r25, Z+3	; 0x03
     a92:	df 91       	pop	r29
     a94:	cf 91       	pop	r28
     a96:	1f 91       	pop	r17
     a98:	0f 91       	pop	r16
     a9a:	ff 90       	pop	r15
     a9c:	ef 90       	pop	r14
     a9e:	df 90       	pop	r13
     aa0:	cf 90       	pop	r12
     aa2:	08 95       	ret

00000aa4 <_Z11IIR_LPF_CDSd>:
     aa4:	cf 92       	push	r12
     aa6:	df 92       	push	r13
     aa8:	ef 92       	push	r14
     aaa:	ff 92       	push	r15
     aac:	0f 93       	push	r16
     aae:	1f 93       	push	r17
     ab0:	cf 93       	push	r28
     ab2:	df 93       	push	r29
     ab4:	60 93 f8 01 	sts	0x01F8, r22	; 0x8001f8 <IIR_input_CDS>
     ab8:	70 93 f9 01 	sts	0x01F9, r23	; 0x8001f9 <IIR_input_CDS+0x1>
     abc:	80 93 fa 01 	sts	0x01FA, r24	; 0x8001fa <IIR_input_CDS+0x2>
     ac0:	90 93 fb 01 	sts	0x01FB, r25	; 0x8001fb <IIR_input_CDS+0x3>
     ac4:	10 92 ec 01 	sts	0x01EC, r1	; 0x8001ec <IIR_CDS>
     ac8:	10 92 ed 01 	sts	0x01ED, r1	; 0x8001ed <IIR_CDS+0x1>
     acc:	10 92 ee 01 	sts	0x01EE, r1	; 0x8001ee <IIR_CDS+0x2>
     ad0:	10 92 ef 01 	sts	0x01EF, r1	; 0x8001ef <IIR_CDS+0x3>
     ad4:	c0 e0       	ldi	r28, 0x00	; 0
     ad6:	d0 e0       	ldi	r29, 0x00	; 0
     ad8:	c3 30       	cpi	r28, 0x03	; 3
     ada:	d1 05       	cpc	r29, r1
     adc:	34 f5       	brge	.+76     	; 0xb2a <_Z11IIR_LPF_CDSd+0x86>
     ade:	9e 01       	movw	r18, r28
     ae0:	22 0f       	add	r18, r18
     ae2:	33 1f       	adc	r19, r19
     ae4:	22 0f       	add	r18, r18
     ae6:	33 1f       	adc	r19, r19
     ae8:	f9 01       	movw	r30, r18
     aea:	e2 5c       	subi	r30, 0xC2	; 194
     aec:	fe 4f       	sbci	r31, 0xFE	; 254
     aee:	60 81       	ld	r22, Z
     af0:	71 81       	ldd	r23, Z+1	; 0x01
     af2:	82 81       	ldd	r24, Z+2	; 0x02
     af4:	93 81       	ldd	r25, Z+3	; 0x03
     af6:	f9 01       	movw	r30, r18
     af8:	e8 50       	subi	r30, 0x08	; 8
     afa:	fe 4f       	sbci	r31, 0xFE	; 254
     afc:	20 81       	ld	r18, Z
     afe:	31 81       	ldd	r19, Z+1	; 0x01
     b00:	42 81       	ldd	r20, Z+2	; 0x02
     b02:	53 81       	ldd	r21, Z+3	; 0x03
     b04:	0c ee       	ldi	r16, 0xEC	; 236
     b06:	11 e0       	ldi	r17, 0x01	; 1
     b08:	f8 01       	movw	r30, r16
     b0a:	c0 80       	ld	r12, Z
     b0c:	d1 80       	ldd	r13, Z+1	; 0x01
     b0e:	e2 80       	ldd	r14, Z+2	; 0x02
     b10:	f3 80       	ldd	r15, Z+3	; 0x03
     b12:	0e 94 fe 0d 	call	0x1bfc	; 0x1bfc <__mulsf3>
     b16:	a7 01       	movw	r20, r14
     b18:	96 01       	movw	r18, r12
     b1a:	9b d6       	rcall	.+3382   	; 0x1852 <__addsf3>
     b1c:	f8 01       	movw	r30, r16
     b1e:	60 83       	st	Z, r22
     b20:	71 83       	std	Z+1, r23	; 0x01
     b22:	82 83       	std	Z+2, r24	; 0x02
     b24:	93 83       	std	Z+3, r25	; 0x03
     b26:	21 96       	adiw	r28, 0x01	; 1
     b28:	d7 cf       	rjmp	.-82     	; 0xad8 <_Z11IIR_LPF_CDSd+0x34>
     b2a:	c1 e0       	ldi	r28, 0x01	; 1
     b2c:	d0 e0       	ldi	r29, 0x00	; 0
     b2e:	c3 30       	cpi	r28, 0x03	; 3
     b30:	d1 05       	cpc	r29, r1
     b32:	44 f5       	brge	.+80     	; 0xb84 <_Z11IIR_LPF_CDSd+0xe0>
     b34:	9e 01       	movw	r18, r28
     b36:	22 0f       	add	r18, r18
     b38:	33 1f       	adc	r19, r19
     b3a:	22 0f       	add	r18, r18
     b3c:	33 1f       	adc	r19, r19
     b3e:	f9 01       	movw	r30, r18
     b40:	ee 5c       	subi	r30, 0xCE	; 206
     b42:	fe 4f       	sbci	r31, 0xFE	; 254
     b44:	60 81       	ld	r22, Z
     b46:	71 81       	ldd	r23, Z+1	; 0x01
     b48:	82 81       	ldd	r24, Z+2	; 0x02
     b4a:	93 81       	ldd	r25, Z+3	; 0x03
     b4c:	0c ee       	ldi	r16, 0xEC	; 236
     b4e:	11 e0       	ldi	r17, 0x01	; 1
     b50:	f9 01       	movw	r30, r18
     b52:	e4 51       	subi	r30, 0x14	; 20
     b54:	fe 4f       	sbci	r31, 0xFE	; 254
     b56:	20 81       	ld	r18, Z
     b58:	31 81       	ldd	r19, Z+1	; 0x01
     b5a:	42 81       	ldd	r20, Z+2	; 0x02
     b5c:	53 81       	ldd	r21, Z+3	; 0x03
     b5e:	f8 01       	movw	r30, r16
     b60:	c0 80       	ld	r12, Z
     b62:	d1 80       	ldd	r13, Z+1	; 0x01
     b64:	e2 80       	ldd	r14, Z+2	; 0x02
     b66:	f3 80       	ldd	r15, Z+3	; 0x03
     b68:	0e 94 fe 0d 	call	0x1bfc	; 0x1bfc <__mulsf3>
     b6c:	9b 01       	movw	r18, r22
     b6e:	ac 01       	movw	r20, r24
     b70:	c7 01       	movw	r24, r14
     b72:	b6 01       	movw	r22, r12
     b74:	6d d6       	rcall	.+3290   	; 0x1850 <__subsf3>
     b76:	f8 01       	movw	r30, r16
     b78:	60 83       	st	Z, r22
     b7a:	71 83       	std	Z+1, r23	; 0x01
     b7c:	82 83       	std	Z+2, r24	; 0x02
     b7e:	93 83       	std	Z+3, r25	; 0x03
     b80:	21 96       	adiw	r28, 0x01	; 1
     b82:	d5 cf       	rjmp	.-86     	; 0xb2e <_Z11IIR_LPF_CDSd+0x8a>
     b84:	ec ee       	ldi	r30, 0xEC	; 236
     b86:	f1 e0       	ldi	r31, 0x01	; 1
     b88:	84 81       	ldd	r24, Z+4	; 0x04
     b8a:	95 81       	ldd	r25, Z+5	; 0x05
     b8c:	a6 81       	ldd	r26, Z+6	; 0x06
     b8e:	b7 81       	ldd	r27, Z+7	; 0x07
     b90:	40 81       	ld	r20, Z
     b92:	51 81       	ldd	r21, Z+1	; 0x01
     b94:	62 81       	ldd	r22, Z+2	; 0x02
     b96:	73 81       	ldd	r23, Z+3	; 0x03
     b98:	44 83       	std	Z+4, r20	; 0x04
     b9a:	55 83       	std	Z+5, r21	; 0x05
     b9c:	66 83       	std	Z+6, r22	; 0x06
     b9e:	77 83       	std	Z+7, r23	; 0x07
     ba0:	80 87       	std	Z+8, r24	; 0x08
     ba2:	91 87       	std	Z+9, r25	; 0x09
     ba4:	a2 87       	std	Z+10, r26	; 0x0a
     ba6:	b3 87       	std	Z+11, r27	; 0x0b
     ba8:	a8 ef       	ldi	r26, 0xF8	; 248
     baa:	b1 e0       	ldi	r27, 0x01	; 1
     bac:	14 96       	adiw	r26, 0x04	; 4
     bae:	4d 91       	ld	r20, X+
     bb0:	5d 91       	ld	r21, X+
     bb2:	6d 91       	ld	r22, X+
     bb4:	7c 91       	ld	r23, X
     bb6:	17 97       	sbiw	r26, 0x07	; 7
     bb8:	0d 91       	ld	r16, X+
     bba:	1d 91       	ld	r17, X+
     bbc:	2d 91       	ld	r18, X+
     bbe:	3c 91       	ld	r19, X
     bc0:	13 97       	sbiw	r26, 0x03	; 3
     bc2:	14 96       	adiw	r26, 0x04	; 4
     bc4:	0d 93       	st	X+, r16
     bc6:	1d 93       	st	X+, r17
     bc8:	2d 93       	st	X+, r18
     bca:	3c 93       	st	X, r19
     bcc:	17 97       	sbiw	r26, 0x07	; 7
     bce:	18 96       	adiw	r26, 0x08	; 8
     bd0:	4d 93       	st	X+, r20
     bd2:	5d 93       	st	X+, r21
     bd4:	6d 93       	st	X+, r22
     bd6:	7c 93       	st	X, r23
     bd8:	1b 97       	sbiw	r26, 0x0b	; 11
     bda:	60 81       	ld	r22, Z
     bdc:	71 81       	ldd	r23, Z+1	; 0x01
     bde:	82 81       	ldd	r24, Z+2	; 0x02
     be0:	93 81       	ldd	r25, Z+3	; 0x03
     be2:	df 91       	pop	r29
     be4:	cf 91       	pop	r28
     be6:	1f 91       	pop	r17
     be8:	0f 91       	pop	r16
     bea:	ff 90       	pop	r15
     bec:	ef 90       	pop	r14
     bee:	df 90       	pop	r13
     bf0:	cf 90       	pop	r12
     bf2:	08 95       	ret

00000bf4 <_Z10IIR_LPF_LMd>:
     bf4:	cf 92       	push	r12
     bf6:	df 92       	push	r13
     bf8:	ef 92       	push	r14
     bfa:	ff 92       	push	r15
     bfc:	0f 93       	push	r16
     bfe:	1f 93       	push	r17
     c00:	cf 93       	push	r28
     c02:	df 93       	push	r29
     c04:	60 93 e0 01 	sts	0x01E0, r22	; 0x8001e0 <IIR_input_LM>
     c08:	70 93 e1 01 	sts	0x01E1, r23	; 0x8001e1 <IIR_input_LM+0x1>
     c0c:	80 93 e2 01 	sts	0x01E2, r24	; 0x8001e2 <IIR_input_LM+0x2>
     c10:	90 93 e3 01 	sts	0x01E3, r25	; 0x8001e3 <IIR_input_LM+0x3>
     c14:	10 92 d4 01 	sts	0x01D4, r1	; 0x8001d4 <IIR_LM>
     c18:	10 92 d5 01 	sts	0x01D5, r1	; 0x8001d5 <IIR_LM+0x1>
     c1c:	10 92 d6 01 	sts	0x01D6, r1	; 0x8001d6 <IIR_LM+0x2>
     c20:	10 92 d7 01 	sts	0x01D7, r1	; 0x8001d7 <IIR_LM+0x3>
     c24:	c0 e0       	ldi	r28, 0x00	; 0
     c26:	d0 e0       	ldi	r29, 0x00	; 0
     c28:	c3 30       	cpi	r28, 0x03	; 3
     c2a:	d1 05       	cpc	r29, r1
     c2c:	2c f5       	brge	.+74     	; 0xc78 <_Z10IIR_LPF_LMd+0x84>
     c2e:	9e 01       	movw	r18, r28
     c30:	22 0f       	add	r18, r18
     c32:	33 1f       	adc	r19, r19
     c34:	22 0f       	add	r18, r18
     c36:	33 1f       	adc	r19, r19
     c38:	f9 01       	movw	r30, r18
     c3a:	ea 5d       	subi	r30, 0xDA	; 218
     c3c:	fe 4f       	sbci	r31, 0xFE	; 254
     c3e:	60 81       	ld	r22, Z
     c40:	71 81       	ldd	r23, Z+1	; 0x01
     c42:	82 81       	ldd	r24, Z+2	; 0x02
     c44:	93 81       	ldd	r25, Z+3	; 0x03
     c46:	f9 01       	movw	r30, r18
     c48:	e0 52       	subi	r30, 0x20	; 32
     c4a:	fe 4f       	sbci	r31, 0xFE	; 254
     c4c:	20 81       	ld	r18, Z
     c4e:	31 81       	ldd	r19, Z+1	; 0x01
     c50:	42 81       	ldd	r20, Z+2	; 0x02
     c52:	53 81       	ldd	r21, Z+3	; 0x03
     c54:	04 ed       	ldi	r16, 0xD4	; 212
     c56:	11 e0       	ldi	r17, 0x01	; 1
     c58:	f8 01       	movw	r30, r16
     c5a:	c0 80       	ld	r12, Z
     c5c:	d1 80       	ldd	r13, Z+1	; 0x01
     c5e:	e2 80       	ldd	r14, Z+2	; 0x02
     c60:	f3 80       	ldd	r15, Z+3	; 0x03
     c62:	cc d7       	rcall	.+3992   	; 0x1bfc <__mulsf3>
     c64:	a7 01       	movw	r20, r14
     c66:	96 01       	movw	r18, r12
     c68:	f4 d5       	rcall	.+3048   	; 0x1852 <__addsf3>
     c6a:	f8 01       	movw	r30, r16
     c6c:	60 83       	st	Z, r22
     c6e:	71 83       	std	Z+1, r23	; 0x01
     c70:	82 83       	std	Z+2, r24	; 0x02
     c72:	93 83       	std	Z+3, r25	; 0x03
     c74:	21 96       	adiw	r28, 0x01	; 1
     c76:	d8 cf       	rjmp	.-80     	; 0xc28 <_Z10IIR_LPF_LMd+0x34>
     c78:	c1 e0       	ldi	r28, 0x01	; 1
     c7a:	d0 e0       	ldi	r29, 0x00	; 0
     c7c:	c3 30       	cpi	r28, 0x03	; 3
     c7e:	d1 05       	cpc	r29, r1
     c80:	3c f5       	brge	.+78     	; 0xcd0 <_Z10IIR_LPF_LMd+0xdc>
     c82:	9e 01       	movw	r18, r28
     c84:	22 0f       	add	r18, r18
     c86:	33 1f       	adc	r19, r19
     c88:	22 0f       	add	r18, r18
     c8a:	33 1f       	adc	r19, r19
     c8c:	f9 01       	movw	r30, r18
     c8e:	e6 5e       	subi	r30, 0xE6	; 230
     c90:	fe 4f       	sbci	r31, 0xFE	; 254
     c92:	60 81       	ld	r22, Z
     c94:	71 81       	ldd	r23, Z+1	; 0x01
     c96:	82 81       	ldd	r24, Z+2	; 0x02
     c98:	93 81       	ldd	r25, Z+3	; 0x03
     c9a:	04 ed       	ldi	r16, 0xD4	; 212
     c9c:	11 e0       	ldi	r17, 0x01	; 1
     c9e:	f9 01       	movw	r30, r18
     ca0:	ec 52       	subi	r30, 0x2C	; 44
     ca2:	fe 4f       	sbci	r31, 0xFE	; 254
     ca4:	20 81       	ld	r18, Z
     ca6:	31 81       	ldd	r19, Z+1	; 0x01
     ca8:	42 81       	ldd	r20, Z+2	; 0x02
     caa:	53 81       	ldd	r21, Z+3	; 0x03
     cac:	f8 01       	movw	r30, r16
     cae:	c0 80       	ld	r12, Z
     cb0:	d1 80       	ldd	r13, Z+1	; 0x01
     cb2:	e2 80       	ldd	r14, Z+2	; 0x02
     cb4:	f3 80       	ldd	r15, Z+3	; 0x03
     cb6:	a2 d7       	rcall	.+3908   	; 0x1bfc <__mulsf3>
     cb8:	9b 01       	movw	r18, r22
     cba:	ac 01       	movw	r20, r24
     cbc:	c7 01       	movw	r24, r14
     cbe:	b6 01       	movw	r22, r12
     cc0:	c7 d5       	rcall	.+2958   	; 0x1850 <__subsf3>
     cc2:	f8 01       	movw	r30, r16
     cc4:	60 83       	st	Z, r22
     cc6:	71 83       	std	Z+1, r23	; 0x01
     cc8:	82 83       	std	Z+2, r24	; 0x02
     cca:	93 83       	std	Z+3, r25	; 0x03
     ccc:	21 96       	adiw	r28, 0x01	; 1
     cce:	d6 cf       	rjmp	.-84     	; 0xc7c <_Z10IIR_LPF_LMd+0x88>
     cd0:	e4 ed       	ldi	r30, 0xD4	; 212
     cd2:	f1 e0       	ldi	r31, 0x01	; 1
     cd4:	84 81       	ldd	r24, Z+4	; 0x04
     cd6:	95 81       	ldd	r25, Z+5	; 0x05
     cd8:	a6 81       	ldd	r26, Z+6	; 0x06
     cda:	b7 81       	ldd	r27, Z+7	; 0x07
     cdc:	40 81       	ld	r20, Z
     cde:	51 81       	ldd	r21, Z+1	; 0x01
     ce0:	62 81       	ldd	r22, Z+2	; 0x02
     ce2:	73 81       	ldd	r23, Z+3	; 0x03
     ce4:	44 83       	std	Z+4, r20	; 0x04
     ce6:	55 83       	std	Z+5, r21	; 0x05
     ce8:	66 83       	std	Z+6, r22	; 0x06
     cea:	77 83       	std	Z+7, r23	; 0x07
     cec:	80 87       	std	Z+8, r24	; 0x08
     cee:	91 87       	std	Z+9, r25	; 0x09
     cf0:	a2 87       	std	Z+10, r26	; 0x0a
     cf2:	b3 87       	std	Z+11, r27	; 0x0b
     cf4:	a0 ee       	ldi	r26, 0xE0	; 224
     cf6:	b1 e0       	ldi	r27, 0x01	; 1
     cf8:	14 96       	adiw	r26, 0x04	; 4
     cfa:	4d 91       	ld	r20, X+
     cfc:	5d 91       	ld	r21, X+
     cfe:	6d 91       	ld	r22, X+
     d00:	7c 91       	ld	r23, X
     d02:	17 97       	sbiw	r26, 0x07	; 7
     d04:	0d 91       	ld	r16, X+
     d06:	1d 91       	ld	r17, X+
     d08:	2d 91       	ld	r18, X+
     d0a:	3c 91       	ld	r19, X
     d0c:	13 97       	sbiw	r26, 0x03	; 3
     d0e:	14 96       	adiw	r26, 0x04	; 4
     d10:	0d 93       	st	X+, r16
     d12:	1d 93       	st	X+, r17
     d14:	2d 93       	st	X+, r18
     d16:	3c 93       	st	X, r19
     d18:	17 97       	sbiw	r26, 0x07	; 7
     d1a:	18 96       	adiw	r26, 0x08	; 8
     d1c:	4d 93       	st	X+, r20
     d1e:	5d 93       	st	X+, r21
     d20:	6d 93       	st	X+, r22
     d22:	7c 93       	st	X, r23
     d24:	1b 97       	sbiw	r26, 0x0b	; 11
     d26:	60 81       	ld	r22, Z
     d28:	71 81       	ldd	r23, Z+1	; 0x01
     d2a:	82 81       	ldd	r24, Z+2	; 0x02
     d2c:	93 81       	ldd	r25, Z+3	; 0x03
     d2e:	df 91       	pop	r29
     d30:	cf 91       	pop	r28
     d32:	1f 91       	pop	r17
     d34:	0f 91       	pop	r16
     d36:	ff 90       	pop	r15
     d38:	ef 90       	pop	r14
     d3a:	df 90       	pop	r13
     d3c:	cf 90       	pop	r12
     d3e:	08 95       	ret

00000d40 <_Z9IIR_LPF_3d>:
     d40:	cf 92       	push	r12
     d42:	df 92       	push	r13
     d44:	ef 92       	push	r14
     d46:	ff 92       	push	r15
     d48:	0f 93       	push	r16
     d4a:	1f 93       	push	r17
     d4c:	cf 93       	push	r28
     d4e:	df 93       	push	r29
     d50:	60 93 c8 01 	sts	0x01C8, r22	; 0x8001c8 <IIR_input_3>
     d54:	70 93 c9 01 	sts	0x01C9, r23	; 0x8001c9 <IIR_input_3+0x1>
     d58:	80 93 ca 01 	sts	0x01CA, r24	; 0x8001ca <IIR_input_3+0x2>
     d5c:	90 93 cb 01 	sts	0x01CB, r25	; 0x8001cb <IIR_input_3+0x3>
     d60:	10 92 bc 01 	sts	0x01BC, r1	; 0x8001bc <IIR_3>
     d64:	10 92 bd 01 	sts	0x01BD, r1	; 0x8001bd <IIR_3+0x1>
     d68:	10 92 be 01 	sts	0x01BE, r1	; 0x8001be <IIR_3+0x2>
     d6c:	10 92 bf 01 	sts	0x01BF, r1	; 0x8001bf <IIR_3+0x3>
     d70:	c0 e0       	ldi	r28, 0x00	; 0
     d72:	d0 e0       	ldi	r29, 0x00	; 0
     d74:	c3 30       	cpi	r28, 0x03	; 3
     d76:	d1 05       	cpc	r29, r1
     d78:	2c f5       	brge	.+74     	; 0xdc4 <_Z9IIR_LPF_3d+0x84>
     d7a:	9e 01       	movw	r18, r28
     d7c:	22 0f       	add	r18, r18
     d7e:	33 1f       	adc	r19, r19
     d80:	22 0f       	add	r18, r18
     d82:	33 1f       	adc	r19, r19
     d84:	f9 01       	movw	r30, r18
     d86:	e2 5f       	subi	r30, 0xF2	; 242
     d88:	fe 4f       	sbci	r31, 0xFE	; 254
     d8a:	60 81       	ld	r22, Z
     d8c:	71 81       	ldd	r23, Z+1	; 0x01
     d8e:	82 81       	ldd	r24, Z+2	; 0x02
     d90:	93 81       	ldd	r25, Z+3	; 0x03
     d92:	f9 01       	movw	r30, r18
     d94:	e8 53       	subi	r30, 0x38	; 56
     d96:	fe 4f       	sbci	r31, 0xFE	; 254
     d98:	20 81       	ld	r18, Z
     d9a:	31 81       	ldd	r19, Z+1	; 0x01
     d9c:	42 81       	ldd	r20, Z+2	; 0x02
     d9e:	53 81       	ldd	r21, Z+3	; 0x03
     da0:	0c eb       	ldi	r16, 0xBC	; 188
     da2:	11 e0       	ldi	r17, 0x01	; 1
     da4:	f8 01       	movw	r30, r16
     da6:	c0 80       	ld	r12, Z
     da8:	d1 80       	ldd	r13, Z+1	; 0x01
     daa:	e2 80       	ldd	r14, Z+2	; 0x02
     dac:	f3 80       	ldd	r15, Z+3	; 0x03
     dae:	26 d7       	rcall	.+3660   	; 0x1bfc <__mulsf3>
     db0:	a7 01       	movw	r20, r14
     db2:	96 01       	movw	r18, r12
     db4:	4e d5       	rcall	.+2716   	; 0x1852 <__addsf3>
     db6:	f8 01       	movw	r30, r16
     db8:	60 83       	st	Z, r22
     dba:	71 83       	std	Z+1, r23	; 0x01
     dbc:	82 83       	std	Z+2, r24	; 0x02
     dbe:	93 83       	std	Z+3, r25	; 0x03
     dc0:	21 96       	adiw	r28, 0x01	; 1
     dc2:	d8 cf       	rjmp	.-80     	; 0xd74 <_Z9IIR_LPF_3d+0x34>
     dc4:	c1 e0       	ldi	r28, 0x01	; 1
     dc6:	d0 e0       	ldi	r29, 0x00	; 0
     dc8:	c3 30       	cpi	r28, 0x03	; 3
     dca:	d1 05       	cpc	r29, r1
     dcc:	3c f5       	brge	.+78     	; 0xe1c <_Z9IIR_LPF_3d+0xdc>
     dce:	9e 01       	movw	r18, r28
     dd0:	22 0f       	add	r18, r18
     dd2:	33 1f       	adc	r19, r19
     dd4:	22 0f       	add	r18, r18
     dd6:	33 1f       	adc	r19, r19
     dd8:	f9 01       	movw	r30, r18
     dda:	ee 5f       	subi	r30, 0xFE	; 254
     ddc:	fe 4f       	sbci	r31, 0xFE	; 254
     dde:	60 81       	ld	r22, Z
     de0:	71 81       	ldd	r23, Z+1	; 0x01
     de2:	82 81       	ldd	r24, Z+2	; 0x02
     de4:	93 81       	ldd	r25, Z+3	; 0x03
     de6:	0c eb       	ldi	r16, 0xBC	; 188
     de8:	11 e0       	ldi	r17, 0x01	; 1
     dea:	f9 01       	movw	r30, r18
     dec:	e4 54       	subi	r30, 0x44	; 68
     dee:	fe 4f       	sbci	r31, 0xFE	; 254
     df0:	20 81       	ld	r18, Z
     df2:	31 81       	ldd	r19, Z+1	; 0x01
     df4:	42 81       	ldd	r20, Z+2	; 0x02
     df6:	53 81       	ldd	r21, Z+3	; 0x03
     df8:	f8 01       	movw	r30, r16
     dfa:	c0 80       	ld	r12, Z
     dfc:	d1 80       	ldd	r13, Z+1	; 0x01
     dfe:	e2 80       	ldd	r14, Z+2	; 0x02
     e00:	f3 80       	ldd	r15, Z+3	; 0x03
     e02:	fc d6       	rcall	.+3576   	; 0x1bfc <__mulsf3>
     e04:	9b 01       	movw	r18, r22
     e06:	ac 01       	movw	r20, r24
     e08:	c7 01       	movw	r24, r14
     e0a:	b6 01       	movw	r22, r12
     e0c:	21 d5       	rcall	.+2626   	; 0x1850 <__subsf3>
     e0e:	f8 01       	movw	r30, r16
     e10:	60 83       	st	Z, r22
     e12:	71 83       	std	Z+1, r23	; 0x01
     e14:	82 83       	std	Z+2, r24	; 0x02
     e16:	93 83       	std	Z+3, r25	; 0x03
     e18:	21 96       	adiw	r28, 0x01	; 1
     e1a:	d6 cf       	rjmp	.-84     	; 0xdc8 <_Z9IIR_LPF_3d+0x88>
     e1c:	ec eb       	ldi	r30, 0xBC	; 188
     e1e:	f1 e0       	ldi	r31, 0x01	; 1
     e20:	84 81       	ldd	r24, Z+4	; 0x04
     e22:	95 81       	ldd	r25, Z+5	; 0x05
     e24:	a6 81       	ldd	r26, Z+6	; 0x06
     e26:	b7 81       	ldd	r27, Z+7	; 0x07
     e28:	40 81       	ld	r20, Z
     e2a:	51 81       	ldd	r21, Z+1	; 0x01
     e2c:	62 81       	ldd	r22, Z+2	; 0x02
     e2e:	73 81       	ldd	r23, Z+3	; 0x03
     e30:	44 83       	std	Z+4, r20	; 0x04
     e32:	55 83       	std	Z+5, r21	; 0x05
     e34:	66 83       	std	Z+6, r22	; 0x06
     e36:	77 83       	std	Z+7, r23	; 0x07
     e38:	80 87       	std	Z+8, r24	; 0x08
     e3a:	91 87       	std	Z+9, r25	; 0x09
     e3c:	a2 87       	std	Z+10, r26	; 0x0a
     e3e:	b3 87       	std	Z+11, r27	; 0x0b
     e40:	a8 ec       	ldi	r26, 0xC8	; 200
     e42:	b1 e0       	ldi	r27, 0x01	; 1
     e44:	14 96       	adiw	r26, 0x04	; 4
     e46:	4d 91       	ld	r20, X+
     e48:	5d 91       	ld	r21, X+
     e4a:	6d 91       	ld	r22, X+
     e4c:	7c 91       	ld	r23, X
     e4e:	17 97       	sbiw	r26, 0x07	; 7
     e50:	0d 91       	ld	r16, X+
     e52:	1d 91       	ld	r17, X+
     e54:	2d 91       	ld	r18, X+
     e56:	3c 91       	ld	r19, X
     e58:	13 97       	sbiw	r26, 0x03	; 3
     e5a:	14 96       	adiw	r26, 0x04	; 4
     e5c:	0d 93       	st	X+, r16
     e5e:	1d 93       	st	X+, r17
     e60:	2d 93       	st	X+, r18
     e62:	3c 93       	st	X, r19
     e64:	17 97       	sbiw	r26, 0x07	; 7
     e66:	18 96       	adiw	r26, 0x08	; 8
     e68:	4d 93       	st	X+, r20
     e6a:	5d 93       	st	X+, r21
     e6c:	6d 93       	st	X+, r22
     e6e:	7c 93       	st	X, r23
     e70:	1b 97       	sbiw	r26, 0x0b	; 11
     e72:	60 81       	ld	r22, Z
     e74:	71 81       	ldd	r23, Z+1	; 0x01
     e76:	82 81       	ldd	r24, Z+2	; 0x02
     e78:	93 81       	ldd	r25, Z+3	; 0x03
     e7a:	df 91       	pop	r29
     e7c:	cf 91       	pop	r28
     e7e:	1f 91       	pop	r17
     e80:	0f 91       	pop	r16
     e82:	ff 90       	pop	r15
     e84:	ef 90       	pop	r14
     e86:	df 90       	pop	r13
     e88:	cf 90       	pop	r12
     e8a:	08 95       	ret

00000e8c <_Z8UARTInitv>:
     e8c:	1b b8       	out	0x0b, r1	; 11
     e8e:	88 e0       	ldi	r24, 0x08	; 8
     e90:	8a b9       	out	0x0a, r24	; 10
     e92:	86 e0       	ldi	r24, 0x06	; 6
     e94:	80 93 95 00 	sts	0x0095, r24	; 0x800095 <__TEXT_REGION_LENGTH__+0x7e0095>
     e98:	10 92 90 00 	sts	0x0090, r1	; 0x800090 <__TEXT_REGION_LENGTH__+0x7e0090>
     e9c:	19 b8       	out	0x09, r1	; 9
     e9e:	08 95       	ret

00000ea0 <_Z8PortInitv>:
     ea0:	82 b1       	in	r24, 0x02	; 2
     ea2:	82 60       	ori	r24, 0x02	; 2
     ea4:	82 b9       	out	0x02, r24	; 2
     ea6:	82 b1       	in	r24, 0x02	; 2
     ea8:	8e 7f       	andi	r24, 0xFE	; 254
     eaa:	82 b9       	out	0x02, r24	; 2
     eac:	08 95       	ret

00000eae <_Z8UART0_TXh>:
     eae:	5d 9b       	sbis	0x0b, 5	; 11
     eb0:	fe cf       	rjmp	.-4      	; 0xeae <_Z8UART0_TXh>
     eb2:	8c b9       	out	0x0c, r24	; 12
     eb4:	08 95       	ret

00000eb6 <_Z8PacketTXhii>:
     eb6:	ff 92       	push	r15
     eb8:	0f 93       	push	r16
     eba:	1f 93       	push	r17
     ebc:	cf 93       	push	r28
     ebe:	df 93       	push	r29
     ec0:	08 2f       	mov	r16, r24
     ec2:	f6 2e       	mov	r15, r22
     ec4:	17 2f       	mov	r17, r23
     ec6:	d4 2f       	mov	r29, r20
     ec8:	c5 2f       	mov	r28, r21
     eca:	8f ef       	ldi	r24, 0xFF	; 255
     ecc:	f0 df       	rcall	.-32     	; 0xeae <_Z8UART0_TXh>
     ece:	8f ef       	ldi	r24, 0xFF	; 255
     ed0:	ee df       	rcall	.-36     	; 0xeae <_Z8UART0_TXh>
     ed2:	80 2f       	mov	r24, r16
     ed4:	ec df       	rcall	.-40     	; 0xeae <_Z8UART0_TXh>
     ed6:	87 e0       	ldi	r24, 0x07	; 7
     ed8:	ea df       	rcall	.-44     	; 0xeae <_Z8UART0_TXh>
     eda:	83 e0       	ldi	r24, 0x03	; 3
     edc:	e8 df       	rcall	.-48     	; 0xeae <_Z8UART0_TXh>
     ede:	8e e1       	ldi	r24, 0x1E	; 30
     ee0:	e6 df       	rcall	.-52     	; 0xeae <_Z8UART0_TXh>
     ee2:	8f 2d       	mov	r24, r15
     ee4:	e4 df       	rcall	.-56     	; 0xeae <_Z8UART0_TXh>
     ee6:	81 2f       	mov	r24, r17
     ee8:	e2 df       	rcall	.-60     	; 0xeae <_Z8UART0_TXh>
     eea:	8d 2f       	mov	r24, r29
     eec:	e0 df       	rcall	.-64     	; 0xeae <_Z8UART0_TXh>
     eee:	8c 2f       	mov	r24, r28
     ef0:	de df       	rcall	.-68     	; 0xeae <_Z8UART0_TXh>
     ef2:	8f 2d       	mov	r24, r15
     ef4:	80 0f       	add	r24, r16
     ef6:	81 0f       	add	r24, r17
     ef8:	8d 0f       	add	r24, r29
     efa:	8c 0f       	add	r24, r28
     efc:	88 5d       	subi	r24, 0xD8	; 216
     efe:	80 95       	com	r24
     f00:	d6 df       	rcall	.-84     	; 0xeae <_Z8UART0_TXh>
     f02:	df 91       	pop	r29
     f04:	cf 91       	pop	r28
     f06:	1f 91       	pop	r17
     f08:	0f 91       	pop	r16
     f0a:	ff 90       	pop	r15
     f0c:	08 95       	ret

00000f0e <_Z7dyna110v>:
     f0e:	40 e0       	ldi	r20, 0x00	; 0
     f10:	50 e0       	ldi	r21, 0x00	; 0
     f12:	67 e7       	ldi	r22, 0x77	; 119
     f14:	71 e0       	ldi	r23, 0x01	; 1
     f16:	81 e0       	ldi	r24, 0x01	; 1
     f18:	ce cf       	rjmp	.-100    	; 0xeb6 <_Z8PacketTXhii>
     f1a:	08 95       	ret

00000f1c <_Z7dyna150v>:
     f1c:	40 e0       	ldi	r20, 0x00	; 0
     f1e:	50 e0       	ldi	r21, 0x00	; 0
     f20:	60 e0       	ldi	r22, 0x00	; 0
     f22:	72 e0       	ldi	r23, 0x02	; 2
     f24:	81 e0       	ldi	r24, 0x01	; 1
     f26:	c7 cf       	rjmp	.-114    	; 0xeb6 <_Z8PacketTXhii>
     f28:	08 95       	ret

00000f2a <_Z7dyna170v>:
     f2a:	40 e0       	ldi	r20, 0x00	; 0
     f2c:	50 e0       	ldi	r21, 0x00	; 0
     f2e:	64 e4       	ldi	r22, 0x44	; 68
     f30:	72 e0       	ldi	r23, 0x02	; 2
     f32:	81 e0       	ldi	r24, 0x01	; 1
     f34:	c0 cf       	rjmp	.-128    	; 0xeb6 <_Z8PacketTXhii>
     f36:	08 95       	ret

00000f38 <_Z7dyna200v>:
     f38:	40 e0       	ldi	r20, 0x00	; 0
     f3a:	50 e0       	ldi	r21, 0x00	; 0
     f3c:	6b ea       	ldi	r22, 0xAB	; 171
     f3e:	72 e0       	ldi	r23, 0x02	; 2
     f40:	81 e0       	ldi	r24, 0x01	; 1
     f42:	b9 cf       	rjmp	.-142    	; 0xeb6 <_Z8PacketTXhii>
     f44:	08 95       	ret

00000f46 <_Z4busyv>:
     f46:	8f e3       	ldi	r24, 0x3F	; 63
     f48:	9f e1       	ldi	r25, 0x1F	; 31
     f4a:	01 97       	sbiw	r24, 0x01	; 1
     f4c:	f1 f7       	brne	.-4      	; 0xf4a <_Z4busyv+0x4>
     f4e:	00 c0       	rjmp	.+0      	; 0xf50 <_Z4busyv+0xa>
     f50:	00 00       	nop
     f52:	08 95       	ret

00000f54 <_Z8delay_usj>:
     f54:	20 e0       	ldi	r18, 0x00	; 0
     f56:	30 e0       	ldi	r19, 0x00	; 0
     f58:	28 17       	cp	r18, r24
     f5a:	39 07       	cpc	r19, r25
     f5c:	48 f4       	brcc	.+18     	; 0xf70 <_Z8delay_usj+0x1c>
     f5e:	0f 92       	push	r0
     f60:	0f 90       	pop	r0
     f62:	0f 92       	push	r0
     f64:	0f 90       	pop	r0
     f66:	0f 92       	push	r0
     f68:	0f 90       	pop	r0
     f6a:	2f 5f       	subi	r18, 0xFF	; 255
     f6c:	3f 4f       	sbci	r19, 0xFF	; 255
     f6e:	f4 cf       	rjmp	.-24     	; 0xf58 <_Z8delay_usj+0x4>
     f70:	08 95       	ret

00000f72 <_Z10lcdCommandh>:
     f72:	cf 93       	push	r28
     f74:	c8 2f       	mov	r28, r24
     f76:	e7 df       	rcall	.-50     	; 0xf46 <_Z4busyv>
     f78:	8c 2f       	mov	r24, r28
     f7a:	80 7f       	andi	r24, 0xF0	; 240
     f7c:	85 bb       	out	0x15, r24	; 21
     f7e:	85 b3       	in	r24, 0x15	; 21
     f80:	8e 7f       	andi	r24, 0xFE	; 254
     f82:	85 bb       	out	0x15, r24	; 21
     f84:	85 b3       	in	r24, 0x15	; 21
     f86:	8d 7f       	andi	r24, 0xFD	; 253
     f88:	85 bb       	out	0x15, r24	; 21
     f8a:	81 e0       	ldi	r24, 0x01	; 1
     f8c:	90 e0       	ldi	r25, 0x00	; 0
     f8e:	e2 df       	rcall	.-60     	; 0xf54 <_Z8delay_usj>
     f90:	85 b3       	in	r24, 0x15	; 21
     f92:	84 60       	ori	r24, 0x04	; 4
     f94:	85 bb       	out	0x15, r24	; 21
     f96:	81 e0       	ldi	r24, 0x01	; 1
     f98:	90 e0       	ldi	r25, 0x00	; 0
     f9a:	dc df       	rcall	.-72     	; 0xf54 <_Z8delay_usj>
     f9c:	85 b3       	in	r24, 0x15	; 21
     f9e:	8b 7f       	andi	r24, 0xFB	; 251
     fa0:	85 bb       	out	0x15, r24	; 21
     fa2:	20 e1       	ldi	r18, 0x10	; 16
     fa4:	c2 9f       	mul	r28, r18
     fa6:	c0 01       	movw	r24, r0
     fa8:	11 24       	eor	r1, r1
     faa:	85 bb       	out	0x15, r24	; 21
     fac:	85 b3       	in	r24, 0x15	; 21
     fae:	8e 7f       	andi	r24, 0xFE	; 254
     fb0:	85 bb       	out	0x15, r24	; 21
     fb2:	85 b3       	in	r24, 0x15	; 21
     fb4:	8d 7f       	andi	r24, 0xFD	; 253
     fb6:	85 bb       	out	0x15, r24	; 21
     fb8:	81 e0       	ldi	r24, 0x01	; 1
     fba:	90 e0       	ldi	r25, 0x00	; 0
     fbc:	cb df       	rcall	.-106    	; 0xf54 <_Z8delay_usj>
     fbe:	85 b3       	in	r24, 0x15	; 21
     fc0:	84 60       	ori	r24, 0x04	; 4
     fc2:	85 bb       	out	0x15, r24	; 21
     fc4:	81 e0       	ldi	r24, 0x01	; 1
     fc6:	90 e0       	ldi	r25, 0x00	; 0
     fc8:	c5 df       	rcall	.-118    	; 0xf54 <_Z8delay_usj>
     fca:	85 b3       	in	r24, 0x15	; 21
     fcc:	8b 7f       	andi	r24, 0xFB	; 251
     fce:	85 bb       	out	0x15, r24	; 21
     fd0:	cf 91       	pop	r28
     fd2:	08 95       	ret

00000fd4 <_Z8lcdClearv>:
     fd4:	81 e0       	ldi	r24, 0x01	; 1
     fd6:	cd cf       	rjmp	.-102    	; 0xf72 <_Z10lcdCommandh>
     fd8:	08 95       	ret

00000fda <_Z18lcdDisplayPositionhh>:
     fda:	81 11       	cpse	r24, r1
     fdc:	04 c0       	rjmp	.+8      	; 0xfe6 <_Z18lcdDisplayPositionhh+0xc>
     fde:	80 e8       	ldi	r24, 0x80	; 128
     fe0:	86 0f       	add	r24, r22
     fe2:	c7 cf       	rjmp	.-114    	; 0xf72 <_Z10lcdCommandh>
     fe4:	08 95       	ret
     fe6:	80 ec       	ldi	r24, 0xC0	; 192
     fe8:	86 0f       	add	r24, r22
     fea:	c3 cf       	rjmp	.-122    	; 0xf72 <_Z10lcdCommandh>
     fec:	08 95       	ret

00000fee <_Z7lcdDatah>:
     fee:	cf 93       	push	r28
     ff0:	c8 2f       	mov	r28, r24
     ff2:	a9 df       	rcall	.-174    	; 0xf46 <_Z4busyv>
     ff4:	8c 2f       	mov	r24, r28
     ff6:	80 7f       	andi	r24, 0xF0	; 240
     ff8:	85 bb       	out	0x15, r24	; 21
     ffa:	85 b3       	in	r24, 0x15	; 21
     ffc:	81 60       	ori	r24, 0x01	; 1
     ffe:	85 bb       	out	0x15, r24	; 21
    1000:	85 b3       	in	r24, 0x15	; 21
    1002:	8d 7f       	andi	r24, 0xFD	; 253
    1004:	85 bb       	out	0x15, r24	; 21
    1006:	81 e0       	ldi	r24, 0x01	; 1
    1008:	90 e0       	ldi	r25, 0x00	; 0
    100a:	a4 df       	rcall	.-184    	; 0xf54 <_Z8delay_usj>
    100c:	85 b3       	in	r24, 0x15	; 21
    100e:	84 60       	ori	r24, 0x04	; 4
    1010:	85 bb       	out	0x15, r24	; 21
    1012:	81 e0       	ldi	r24, 0x01	; 1
    1014:	90 e0       	ldi	r25, 0x00	; 0
    1016:	9e df       	rcall	.-196    	; 0xf54 <_Z8delay_usj>
    1018:	85 b3       	in	r24, 0x15	; 21
    101a:	8b 7f       	andi	r24, 0xFB	; 251
    101c:	85 bb       	out	0x15, r24	; 21
    101e:	20 e1       	ldi	r18, 0x10	; 16
    1020:	c2 9f       	mul	r28, r18
    1022:	c0 01       	movw	r24, r0
    1024:	11 24       	eor	r1, r1
    1026:	85 bb       	out	0x15, r24	; 21
    1028:	85 b3       	in	r24, 0x15	; 21
    102a:	81 60       	ori	r24, 0x01	; 1
    102c:	85 bb       	out	0x15, r24	; 21
    102e:	85 b3       	in	r24, 0x15	; 21
    1030:	8d 7f       	andi	r24, 0xFD	; 253
    1032:	85 bb       	out	0x15, r24	; 21
    1034:	81 e0       	ldi	r24, 0x01	; 1
    1036:	90 e0       	ldi	r25, 0x00	; 0
    1038:	8d df       	rcall	.-230    	; 0xf54 <_Z8delay_usj>
    103a:	85 b3       	in	r24, 0x15	; 21
    103c:	84 60       	ori	r24, 0x04	; 4
    103e:	85 bb       	out	0x15, r24	; 21
    1040:	81 e0       	ldi	r24, 0x01	; 1
    1042:	90 e0       	ldi	r25, 0x00	; 0
    1044:	87 df       	rcall	.-242    	; 0xf54 <_Z8delay_usj>
    1046:	85 b3       	in	r24, 0x15	; 21
    1048:	8b 7f       	andi	r24, 0xFB	; 251
    104a:	85 bb       	out	0x15, r24	; 21
    104c:	cf 91       	pop	r28
    104e:	08 95       	ret

00001050 <_Z9lcdStringhhPc>:
    1050:	cf 93       	push	r28
    1052:	df 93       	push	r29
    1054:	ea 01       	movw	r28, r20
    1056:	c1 df       	rcall	.-126    	; 0xfda <_Z18lcdDisplayPositionhh>
    1058:	88 81       	ld	r24, Y
    105a:	88 23       	and	r24, r24
    105c:	19 f0       	breq	.+6      	; 0x1064 <_Z9lcdStringhhPc+0x14>
    105e:	21 96       	adiw	r28, 0x01	; 1
    1060:	c6 df       	rcall	.-116    	; 0xfee <_Z7lcdDatah>
    1062:	fa cf       	rjmp	.-12     	; 0x1058 <_Z9lcdStringhhPc+0x8>
    1064:	df 91       	pop	r29
    1066:	cf 91       	pop	r28
    1068:	08 95       	ret

0000106a <_Z9lcdNumberhhi>:
    106a:	ef 92       	push	r14
    106c:	ff 92       	push	r15
    106e:	0f 93       	push	r16
    1070:	1f 93       	push	r17
    1072:	cf 93       	push	r28
    1074:	df 93       	push	r29
    1076:	cd b7       	in	r28, 0x3d	; 61
    1078:	de b7       	in	r29, 0x3e	; 62
    107a:	c4 56       	subi	r28, 0x64	; 100
    107c:	d1 09       	sbc	r29, r1
    107e:	0f b6       	in	r0, 0x3f	; 63
    1080:	f8 94       	cli
    1082:	de bf       	out	0x3e, r29	; 62
    1084:	0f be       	out	0x3f, r0	; 63
    1086:	cd bf       	out	0x3d, r28	; 61
    1088:	f8 2e       	mov	r15, r24
    108a:	e6 2e       	mov	r14, r22
    108c:	8e 01       	movw	r16, r28
    108e:	0f 5f       	subi	r16, 0xFF	; 255
    1090:	1f 4f       	sbci	r17, 0xFF	; 255
    1092:	84 e6       	ldi	r24, 0x64	; 100
    1094:	f8 01       	movw	r30, r16
    1096:	11 92       	st	Z+, r1
    1098:	8a 95       	dec	r24
    109a:	e9 f7       	brne	.-6      	; 0x1096 <_Z9lcdNumberhhi+0x2c>
    109c:	5f 93       	push	r21
    109e:	4f 93       	push	r20
    10a0:	82 e9       	ldi	r24, 0x92	; 146
    10a2:	91 e0       	ldi	r25, 0x01	; 1
    10a4:	9f 93       	push	r25
    10a6:	8f 93       	push	r24
    10a8:	1f 93       	push	r17
    10aa:	0f 93       	push	r16
    10ac:	66 d7       	rcall	.+3788   	; 0x1f7a <sprintf>
    10ae:	a8 01       	movw	r20, r16
    10b0:	6e 2d       	mov	r22, r14
    10b2:	8f 2d       	mov	r24, r15
    10b4:	cd df       	rcall	.-102    	; 0x1050 <_Z9lcdStringhhPc>
    10b6:	0f 90       	pop	r0
    10b8:	0f 90       	pop	r0
    10ba:	0f 90       	pop	r0
    10bc:	0f 90       	pop	r0
    10be:	0f 90       	pop	r0
    10c0:	0f 90       	pop	r0
    10c2:	cc 59       	subi	r28, 0x9C	; 156
    10c4:	df 4f       	sbci	r29, 0xFF	; 255
    10c6:	0f b6       	in	r0, 0x3f	; 63
    10c8:	f8 94       	cli
    10ca:	de bf       	out	0x3e, r29	; 62
    10cc:	0f be       	out	0x3f, r0	; 63
    10ce:	cd bf       	out	0x3d, r28	; 61
    10d0:	df 91       	pop	r29
    10d2:	cf 91       	pop	r28
    10d4:	1f 91       	pop	r17
    10d6:	0f 91       	pop	r16
    10d8:	ff 90       	pop	r15
    10da:	ef 90       	pop	r14
    10dc:	08 95       	ret

000010de <_Z7lcdInitv>:
    10de:	2f ef       	ldi	r18, 0xFF	; 255
    10e0:	86 e7       	ldi	r24, 0x76	; 118
    10e2:	91 e0       	ldi	r25, 0x01	; 1
    10e4:	21 50       	subi	r18, 0x01	; 1
    10e6:	80 40       	sbci	r24, 0x00	; 0
    10e8:	90 40       	sbci	r25, 0x00	; 0
    10ea:	e1 f7       	brne	.-8      	; 0x10e4 <_Z7lcdInitv+0x6>
    10ec:	00 c0       	rjmp	.+0      	; 0x10ee <_Z7lcdInitv+0x10>
    10ee:	00 00       	nop
    10f0:	8f ef       	ldi	r24, 0xFF	; 255
    10f2:	84 bb       	out	0x14, r24	; 20
    10f4:	85 b3       	in	r24, 0x15	; 21
    10f6:	8b 7f       	andi	r24, 0xFB	; 251
    10f8:	85 bb       	out	0x15, r24	; 21
    10fa:	8f e5       	ldi	r24, 0x5F	; 95
    10fc:	9a ee       	ldi	r25, 0xEA	; 234
    10fe:	01 97       	sbiw	r24, 0x01	; 1
    1100:	f1 f7       	brne	.-4      	; 0x10fe <_Z7lcdInitv+0x20>
    1102:	00 c0       	rjmp	.+0      	; 0x1104 <__stack+0x5>
    1104:	00 00       	nop
    1106:	80 e2       	ldi	r24, 0x20	; 32
    1108:	34 df       	rcall	.-408    	; 0xf72 <_Z10lcdCommandh>
    110a:	8f e1       	ldi	r24, 0x1F	; 31
    110c:	9e e4       	ldi	r25, 0x4E	; 78
    110e:	01 97       	sbiw	r24, 0x01	; 1
    1110:	f1 f7       	brne	.-4      	; 0x110e <__stack+0xf>
    1112:	00 c0       	rjmp	.+0      	; 0x1114 <__stack+0x15>
    1114:	00 00       	nop
    1116:	80 e2       	ldi	r24, 0x20	; 32
    1118:	2c df       	rcall	.-424    	; 0xf72 <_Z10lcdCommandh>
    111a:	88 ec       	ldi	r24, 0xC8	; 200
    111c:	90 e0       	ldi	r25, 0x00	; 0
    111e:	1a df       	rcall	.-460    	; 0xf54 <_Z8delay_usj>
    1120:	80 e2       	ldi	r24, 0x20	; 32
    1122:	27 df       	rcall	.-434    	; 0xf72 <_Z10lcdCommandh>
    1124:	88 e2       	ldi	r24, 0x28	; 40
    1126:	25 df       	rcall	.-438    	; 0xf72 <_Z10lcdCommandh>
    1128:	8c e0       	ldi	r24, 0x0C	; 12
    112a:	23 df       	rcall	.-442    	; 0xf72 <_Z10lcdCommandh>
    112c:	81 e0       	ldi	r24, 0x01	; 1
    112e:	21 df       	rcall	.-446    	; 0xf72 <_Z10lcdCommandh>
    1130:	86 e0       	ldi	r24, 0x06	; 6
    1132:	1f df       	rcall	.-450    	; 0xf72 <_Z10lcdCommandh>
    1134:	45 e9       	ldi	r20, 0x95	; 149
    1136:	51 e0       	ldi	r21, 0x01	; 1
    1138:	60 e0       	ldi	r22, 0x00	; 0
    113a:	80 e0       	ldi	r24, 0x00	; 0
    113c:	89 cf       	rjmp	.-238    	; 0x1050 <_Z9lcdStringhhPc>
    113e:	08 95       	ret

00001140 <_Z8servo_upv>:
    1140:	88 ee       	ldi	r24, 0xE8	; 232
    1142:	93 e0       	ldi	r25, 0x03	; 3
    1144:	9b bd       	out	0x2b, r25	; 43
    1146:	8a bd       	out	0x2a, r24	; 42
    1148:	08 95       	ret

0000114a <_Z10servo_downv>:
    114a:	80 ed       	ldi	r24, 0xD0	; 208
    114c:	97 e0       	ldi	r25, 0x07	; 7
    114e:	9b bd       	out	0x2b, r25	; 43
    1150:	8a bd       	out	0x2a, r24	; 42
    1152:	08 95       	ret

00001154 <_Z8set_GPIOv>:
    1154:	e1 e6       	ldi	r30, 0x61	; 97
    1156:	f0 e0       	ldi	r31, 0x00	; 0
    1158:	80 81       	ld	r24, Z
    115a:	8e 7f       	andi	r24, 0xFE	; 254
    115c:	80 83       	st	Z, r24
    115e:	80 81       	ld	r24, Z
    1160:	8d 7f       	andi	r24, 0xFD	; 253
    1162:	80 83       	st	Z, r24
    1164:	80 81       	ld	r24, Z
    1166:	8b 7f       	andi	r24, 0xFB	; 251
    1168:	80 83       	st	Z, r24
    116a:	80 81       	ld	r24, Z
    116c:	87 7f       	andi	r24, 0xF7	; 247
    116e:	80 83       	st	Z, r24
    1170:	80 81       	ld	r24, Z
    1172:	8f 7e       	andi	r24, 0xEF	; 239
    1174:	80 83       	st	Z, r24
    1176:	80 81       	ld	r24, Z
    1178:	8f 7d       	andi	r24, 0xDF	; 223
    117a:	80 83       	st	Z, r24
    117c:	8a b3       	in	r24, 0x1a	; 26
    117e:	80 61       	ori	r24, 0x10	; 16
    1180:	8a bb       	out	0x1a, r24	; 26
    1182:	87 b3       	in	r24, 0x17	; 23
    1184:	80 62       	ori	r24, 0x20	; 32
    1186:	87 bb       	out	0x17, r24	; 23
    1188:	8a b3       	in	r24, 0x1a	; 26
    118a:	81 60       	ori	r24, 0x01	; 1
    118c:	8a bb       	out	0x1a, r24	; 26
    118e:	8a b3       	in	r24, 0x1a	; 26
    1190:	82 60       	ori	r24, 0x02	; 2
    1192:	8a bb       	out	0x1a, r24	; 26
    1194:	8a b3       	in	r24, 0x1a	; 26
    1196:	84 60       	ori	r24, 0x04	; 4
    1198:	8a bb       	out	0x1a, r24	; 26
    119a:	8a b3       	in	r24, 0x1a	; 26
    119c:	88 60       	ori	r24, 0x08	; 8
    119e:	8a bb       	out	0x1a, r24	; 26
    11a0:	8a b3       	in	r24, 0x1a	; 26
    11a2:	80 62       	ori	r24, 0x20	; 32
    11a4:	8a bb       	out	0x1a, r24	; 26
    11a6:	8b b3       	in	r24, 0x1b	; 27
    11a8:	80 62       	ori	r24, 0x20	; 32
    11aa:	8b bb       	out	0x1b, r24	; 27
    11ac:	82 b1       	in	r24, 0x02	; 2
    11ae:	88 60       	ori	r24, 0x08	; 8
    11b0:	82 b9       	out	0x02, r24	; 2
    11b2:	82 b1       	in	r24, 0x02	; 2
    11b4:	80 61       	ori	r24, 0x10	; 16
    11b6:	82 b9       	out	0x02, r24	; 2
    11b8:	08 95       	ret

000011ba <_Z7set_ADCv>:
    11ba:	17 b8       	out	0x07, r1	; 7
    11bc:	87 e8       	ldi	r24, 0x87	; 135
    11be:	86 b9       	out	0x06, r24	; 6
    11c0:	08 95       	ret

000011c2 <_Z7get_adci>:
    11c2:	80 64       	ori	r24, 0x40	; 64
    11c4:	87 b9       	out	0x07, r24	; 7
    11c6:	86 b1       	in	r24, 0x06	; 6
    11c8:	80 64       	ori	r24, 0x40	; 64
    11ca:	86 b9       	out	0x06, r24	; 6
    11cc:	34 9b       	sbis	0x06, 4	; 6
    11ce:	fe cf       	rjmp	.-4      	; 0x11cc <_Z7get_adci+0xa>
    11d0:	86 b1       	in	r24, 0x06	; 6
    11d2:	8f 7e       	andi	r24, 0xEF	; 239
    11d4:	86 b9       	out	0x06, r24	; 6
    11d6:	84 b1       	in	r24, 0x04	; 4
    11d8:	95 b1       	in	r25, 0x05	; 5
    11da:	08 95       	ret

000011dc <_Z10set_Timer2v>:
    11dc:	8d e6       	ldi	r24, 0x6D	; 109
    11de:	85 bd       	out	0x25, r24	; 37
    11e0:	80 e4       	ldi	r24, 0x40	; 64
    11e2:	87 bf       	out	0x37, r24	; 55
    11e4:	08 95       	ret

000011e6 <_Z10set_Timer1v>:
    11e6:	8a ea       	ldi	r24, 0xAA	; 170
    11e8:	8f bd       	out	0x2f, r24	; 47
    11ea:	8a e1       	ldi	r24, 0x1A	; 26
    11ec:	8e bd       	out	0x2e, r24	; 46
    11ee:	80 e4       	ldi	r24, 0x40	; 64
    11f0:	9c e9       	ldi	r25, 0x9C	; 156
    11f2:	97 bd       	out	0x27, r25	; 39
    11f4:	86 bd       	out	0x26, r24	; 38
    11f6:	88 eb       	ldi	r24, 0xB8	; 184
    11f8:	9b e0       	ldi	r25, 0x0B	; 11
    11fa:	9b bd       	out	0x2b, r25	; 43
    11fc:	8a bd       	out	0x2a, r24	; 42
    11fe:	80 e3       	ldi	r24, 0x30	; 48
    1200:	95 e7       	ldi	r25, 0x75	; 117
    1202:	99 bd       	out	0x29, r25	; 41
    1204:	88 bd       	out	0x28, r24	; 40
    1206:	90 93 79 00 	sts	0x0079, r25	; 0x800079 <__TEXT_REGION_LENGTH__+0x7e0079>
    120a:	80 93 78 00 	sts	0x0078, r24	; 0x800078 <__TEXT_REGION_LENGTH__+0x7e0078>
    120e:	08 95       	ret

00001210 <_Z13set_Timer3_DCv>:
    1210:	eb e8       	ldi	r30, 0x8B	; 139
    1212:	f0 e0       	ldi	r31, 0x00	; 0
    1214:	80 81       	ld	r24, Z
    1216:	80 68       	ori	r24, 0x80	; 128
    1218:	80 83       	st	Z, r24
    121a:	80 81       	ld	r24, Z
    121c:	80 62       	ori	r24, 0x20	; 32
    121e:	80 83       	st	Z, r24
    1220:	80 81       	ld	r24, Z
    1222:	82 60       	ori	r24, 0x02	; 2
    1224:	80 83       	st	Z, r24
    1226:	80 81       	ld	r24, Z
    1228:	8e 7f       	andi	r24, 0xFE	; 254
    122a:	80 83       	st	Z, r24
    122c:	ea e8       	ldi	r30, 0x8A	; 138
    122e:	f0 e0       	ldi	r31, 0x00	; 0
    1230:	80 81       	ld	r24, Z
    1232:	80 61       	ori	r24, 0x10	; 16
    1234:	80 83       	st	Z, r24
    1236:	80 81       	ld	r24, Z
    1238:	88 60       	ori	r24, 0x08	; 8
    123a:	80 83       	st	Z, r24
    123c:	80 81       	ld	r24, Z
    123e:	8b 7f       	andi	r24, 0xFB	; 251
    1240:	80 83       	st	Z, r24
    1242:	80 81       	ld	r24, Z
    1244:	82 60       	ori	r24, 0x02	; 2
    1246:	80 83       	st	Z, r24
    1248:	80 81       	ld	r24, Z
    124a:	81 60       	ori	r24, 0x01	; 1
    124c:	80 83       	st	Z, r24
    124e:	83 ec       	ldi	r24, 0xC3	; 195
    1250:	99 e0       	ldi	r25, 0x09	; 9
    1252:	90 93 81 00 	sts	0x0081, r25	; 0x800081 <__TEXT_REGION_LENGTH__+0x7e0081>
    1256:	80 93 80 00 	sts	0x0080, r24	; 0x800080 <__TEXT_REGION_LENGTH__+0x7e0080>
    125a:	81 e0       	ldi	r24, 0x01	; 1
    125c:	90 e0       	ldi	r25, 0x00	; 0
    125e:	90 93 87 00 	sts	0x0087, r25	; 0x800087 <__TEXT_REGION_LENGTH__+0x7e0087>
    1262:	80 93 86 00 	sts	0x0086, r24	; 0x800086 <__TEXT_REGION_LENGTH__+0x7e0086>
    1266:	90 93 85 00 	sts	0x0085, r25	; 0x800085 <__TEXT_REGION_LENGTH__+0x7e0085>
    126a:	80 93 84 00 	sts	0x0084, r24	; 0x800084 <__TEXT_REGION_LENGTH__+0x7e0084>
    126e:	08 95       	ret

00001270 <main>:
    1270:	71 df       	rcall	.-286    	; 0x1154 <_Z8set_GPIOv>
    1272:	0b d8       	rcall	.-4074   	; 0x28a <_Z11init_RGBLEDv>
    1274:	34 df       	rcall	.-408    	; 0x10de <_Z7lcdInitv>
    1276:	ae de       	rcall	.-676    	; 0xfd4 <_Z8lcdClearv>
    1278:	a0 df       	rcall	.-192    	; 0x11ba <_Z7set_ADCv>
    127a:	b5 df       	rcall	.-150    	; 0x11e6 <_Z10set_Timer1v>
    127c:	c9 df       	rcall	.-110    	; 0x1210 <_Z13set_Timer3_DCv>
    127e:	8b b3       	in	r24, 0x1b	; 27
    1280:	81 60       	ori	r24, 0x01	; 1
    1282:	8b bb       	out	0x1b, r24	; 27
    1284:	8b b3       	in	r24, 0x1b	; 27
    1286:	8d 7f       	andi	r24, 0xFD	; 253
    1288:	8b bb       	out	0x1b, r24	; 27
    128a:	8b b3       	in	r24, 0x1b	; 27
    128c:	84 60       	ori	r24, 0x04	; 4
    128e:	8b bb       	out	0x1b, r24	; 27
    1290:	8b b3       	in	r24, 0x1b	; 27
    1292:	87 7f       	andi	r24, 0xF7	; 247
    1294:	8b bb       	out	0x1b, r24	; 27
    1296:	04 de       	rcall	.-1016   	; 0xea0 <_Z8PortInitv>
    1298:	f9 dd       	rcall	.-1038   	; 0xe8c <_Z8UARTInitv>
    129a:	01 d8       	rcall	.-4094   	; 0x29e <_Z9set_UART1v>
    129c:	9f df       	rcall	.-194    	; 0x11dc <_Z10set_Timer2v>
    129e:	78 94       	sei
    12a0:	ff cf       	rjmp	.-2      	; 0x12a0 <main+0x30>

000012a2 <_Z10Fan_A_Highv>:
    12a2:	80 91 00 01 	lds	r24, 0x0100	; 0x800100 <__DATA_REGION_ORIGIN__>
    12a6:	90 91 01 01 	lds	r25, 0x0101	; 0x800101 <__DATA_REGION_ORIGIN__+0x1>
    12aa:	88 0f       	add	r24, r24
    12ac:	99 1f       	adc	r25, r25
    12ae:	88 0f       	add	r24, r24
    12b0:	99 1f       	adc	r25, r25
    12b2:	90 93 87 00 	sts	0x0087, r25	; 0x800087 <__TEXT_REGION_LENGTH__+0x7e0087>
    12b6:	80 93 86 00 	sts	0x0086, r24	; 0x800086 <__TEXT_REGION_LENGTH__+0x7e0086>
    12ba:	08 95       	ret

000012bc <_Z10Fan_B_Highv>:
    12bc:	80 91 00 01 	lds	r24, 0x0100	; 0x800100 <__DATA_REGION_ORIGIN__>
    12c0:	90 91 01 01 	lds	r25, 0x0101	; 0x800101 <__DATA_REGION_ORIGIN__+0x1>
    12c4:	88 0f       	add	r24, r24
    12c6:	99 1f       	adc	r25, r25
    12c8:	88 0f       	add	r24, r24
    12ca:	99 1f       	adc	r25, r25
    12cc:	90 93 85 00 	sts	0x0085, r25	; 0x800085 <__TEXT_REGION_LENGTH__+0x7e0085>
    12d0:	80 93 84 00 	sts	0x0084, r24	; 0x800084 <__TEXT_REGION_LENGTH__+0x7e0084>
    12d4:	08 95       	ret

000012d6 <_Z9Fan_A_Lowv>:
    12d6:	80 91 00 01 	lds	r24, 0x0100	; 0x800100 <__DATA_REGION_ORIGIN__>
    12da:	90 91 01 01 	lds	r25, 0x0101	; 0x800101 <__DATA_REGION_ORIGIN__+0x1>
    12de:	90 93 87 00 	sts	0x0087, r25	; 0x800087 <__TEXT_REGION_LENGTH__+0x7e0087>
    12e2:	80 93 86 00 	sts	0x0086, r24	; 0x800086 <__TEXT_REGION_LENGTH__+0x7e0086>
    12e6:	08 95       	ret

000012e8 <_Z9Fan_B_Lowv>:
    12e8:	80 91 00 01 	lds	r24, 0x0100	; 0x800100 <__DATA_REGION_ORIGIN__>
    12ec:	90 91 01 01 	lds	r25, 0x0101	; 0x800101 <__DATA_REGION_ORIGIN__+0x1>
    12f0:	90 93 85 00 	sts	0x0085, r25	; 0x800085 <__TEXT_REGION_LENGTH__+0x7e0085>
    12f4:	80 93 84 00 	sts	0x0084, r24	; 0x800084 <__TEXT_REGION_LENGTH__+0x7e0084>
    12f8:	08 95       	ret

000012fa <_Z10Fan_A_Stopv>:
    12fa:	81 e0       	ldi	r24, 0x01	; 1
    12fc:	90 e0       	ldi	r25, 0x00	; 0
    12fe:	90 93 87 00 	sts	0x0087, r25	; 0x800087 <__TEXT_REGION_LENGTH__+0x7e0087>
    1302:	80 93 86 00 	sts	0x0086, r24	; 0x800086 <__TEXT_REGION_LENGTH__+0x7e0086>
    1306:	08 95       	ret

00001308 <_Z10Fan_B_Stopv>:
    1308:	81 e0       	ldi	r24, 0x01	; 1
    130a:	90 e0       	ldi	r25, 0x00	; 0
    130c:	90 93 85 00 	sts	0x0085, r25	; 0x800085 <__TEXT_REGION_LENGTH__+0x7e0085>
    1310:	80 93 84 00 	sts	0x0084, r24	; 0x800084 <__TEXT_REGION_LENGTH__+0x7e0084>
    1314:	08 95       	ret

00001316 <_Z9buzzer_ONv>:
    1316:	80 91 ba 01 	lds	r24, 0x01BA	; 0x8001ba <buzzer_cnt>
    131a:	90 91 bb 01 	lds	r25, 0x01BB	; 0x8001bb <buzzer_cnt+0x1>
    131e:	8a 30       	cpi	r24, 0x0A	; 10
    1320:	91 05       	cpc	r25, r1
    1322:	49 f0       	breq	.+18     	; 0x1336 <_Z9buzzer_ONv+0x20>
    1324:	8f 30       	cpi	r24, 0x0F	; 15
    1326:	91 05       	cpc	r25, r1
    1328:	51 f0       	breq	.+20     	; 0x133e <_Z9buzzer_ONv+0x28>
    132a:	89 2b       	or	r24, r25
    132c:	71 f4       	brne	.+28     	; 0x134a <_Z9buzzer_ONv+0x34>
    132e:	8b b3       	in	r24, 0x1b	; 27
    1330:	8f 7d       	andi	r24, 0xDF	; 223
    1332:	8b bb       	out	0x1b, r24	; 27
    1334:	0a c0       	rjmp	.+20     	; 0x134a <_Z9buzzer_ONv+0x34>
    1336:	8b b3       	in	r24, 0x1b	; 27
    1338:	80 62       	ori	r24, 0x20	; 32
    133a:	8b bb       	out	0x1b, r24	; 27
    133c:	06 c0       	rjmp	.+12     	; 0x134a <_Z9buzzer_ONv+0x34>
    133e:	8f ef       	ldi	r24, 0xFF	; 255
    1340:	9f ef       	ldi	r25, 0xFF	; 255
    1342:	90 93 bb 01 	sts	0x01BB, r25	; 0x8001bb <buzzer_cnt+0x1>
    1346:	80 93 ba 01 	sts	0x01BA, r24	; 0x8001ba <buzzer_cnt>
    134a:	80 91 ba 01 	lds	r24, 0x01BA	; 0x8001ba <buzzer_cnt>
    134e:	90 91 bb 01 	lds	r25, 0x01BB	; 0x8001bb <buzzer_cnt+0x1>
    1352:	01 96       	adiw	r24, 0x01	; 1
    1354:	90 93 bb 01 	sts	0x01BB, r25	; 0x8001bb <buzzer_cnt+0x1>
    1358:	80 93 ba 01 	sts	0x01BA, r24	; 0x8001ba <buzzer_cnt>
    135c:	08 95       	ret

0000135e <_Z10buzzer_OFFv>:
    135e:	8b b3       	in	r24, 0x1b	; 27
    1360:	80 62       	ori	r24, 0x20	; 32
    1362:	8b bb       	out	0x1b, r24	; 27
    1364:	08 95       	ret

00001366 <_Z7action2j>:
		Fan_A_Stop();
		Fan_B_Stop();
	}
}

void action2(unsigned int val){	// 밝기 값이 일정 수준 이하이면 밤이라 인식하고 모터 속도 감소 => 소음 제거
    1366:	cf 92       	push	r12
    1368:	df 92       	push	r13
    136a:	ef 92       	push	r14
    136c:	ff 92       	push	r15
	if(val < 50){
    136e:	c2 97       	sbiw	r24, 0x32	; 50
    1370:	08 f0       	brcs	.+2      	; 0x1374 <_Z7action2j+0xe>
    1372:	41 c0       	rjmp	.+130    	; 0x13f6 <_Z7action2j+0x90>
		if(OCR3A > ICR3 * 0.5 || OCR3B > ICR3 * 0.5){
    1374:	60 91 86 00 	lds	r22, 0x0086	; 0x800086 <__TEXT_REGION_LENGTH__+0x7e0086>
    1378:	70 91 87 00 	lds	r23, 0x0087	; 0x800087 <__TEXT_REGION_LENGTH__+0x7e0087>
    137c:	80 e0       	ldi	r24, 0x00	; 0
    137e:	90 e0       	ldi	r25, 0x00	; 0
    1380:	60 d3       	rcall	.+1728   	; 0x1a42 <__floatunsisf>
    1382:	6b 01       	movw	r12, r22
    1384:	7c 01       	movw	r14, r24
    1386:	60 91 80 00 	lds	r22, 0x0080	; 0x800080 <__TEXT_REGION_LENGTH__+0x7e0080>
    138a:	70 91 81 00 	lds	r23, 0x0081	; 0x800081 <__TEXT_REGION_LENGTH__+0x7e0081>
    138e:	80 e0       	ldi	r24, 0x00	; 0
    1390:	90 e0       	ldi	r25, 0x00	; 0
    1392:	57 d3       	rcall	.+1710   	; 0x1a42 <__floatunsisf>
    1394:	20 e0       	ldi	r18, 0x00	; 0
    1396:	30 e0       	ldi	r19, 0x00	; 0
    1398:	40 e0       	ldi	r20, 0x00	; 0
    139a:	5f e3       	ldi	r21, 0x3F	; 63
    139c:	2f d4       	rcall	.+2142   	; 0x1bfc <__mulsf3>
    139e:	9b 01       	movw	r18, r22
    13a0:	ac 01       	movw	r20, r24
    13a2:	c7 01       	movw	r24, r14
    13a4:	b6 01       	movw	r22, r12
    13a6:	db d3       	rcall	.+1974   	; 0x1b5e <__gesf2>
    13a8:	18 16       	cp	r1, r24
    13aa:	f4 f0       	brlt	.+60     	; 0x13e8 <_Z7action2j+0x82>
    13ac:	60 91 84 00 	lds	r22, 0x0084	; 0x800084 <__TEXT_REGION_LENGTH__+0x7e0084>
    13b0:	70 91 85 00 	lds	r23, 0x0085	; 0x800085 <__TEXT_REGION_LENGTH__+0x7e0085>
    13b4:	80 e0       	ldi	r24, 0x00	; 0
    13b6:	90 e0       	ldi	r25, 0x00	; 0
    13b8:	44 d3       	rcall	.+1672   	; 0x1a42 <__floatunsisf>
    13ba:	6b 01       	movw	r12, r22
    13bc:	7c 01       	movw	r14, r24
    13be:	60 91 80 00 	lds	r22, 0x0080	; 0x800080 <__TEXT_REGION_LENGTH__+0x7e0080>
    13c2:	70 91 81 00 	lds	r23, 0x0081	; 0x800081 <__TEXT_REGION_LENGTH__+0x7e0081>
    13c6:	80 e0       	ldi	r24, 0x00	; 0
    13c8:	90 e0       	ldi	r25, 0x00	; 0
    13ca:	3b d3       	rcall	.+1654   	; 0x1a42 <__floatunsisf>
    13cc:	20 e0       	ldi	r18, 0x00	; 0
    13ce:	30 e0       	ldi	r19, 0x00	; 0
    13d0:	40 e0       	ldi	r20, 0x00	; 0
    13d2:	5f e3       	ldi	r21, 0x3F	; 63
    13d4:	13 d4       	rcall	.+2086   	; 0x1bfc <__mulsf3>
    13d6:	9b 01       	movw	r18, r22
    13d8:	ac 01       	movw	r20, r24
    13da:	c7 01       	movw	r24, r14
    13dc:	b6 01       	movw	r22, r12
    13de:	bf d3       	rcall	.+1918   	; 0x1b5e <__gesf2>
    13e0:	18 16       	cp	r1, r24
    13e2:	24 f4       	brge	.+8      	; 0x13ec <_Z7action2j+0x86>
    13e4:	81 e0       	ldi	r24, 0x01	; 1
    13e6:	03 c0       	rjmp	.+6      	; 0x13ee <_Z7action2j+0x88>
    13e8:	81 e0       	ldi	r24, 0x01	; 1
    13ea:	01 c0       	rjmp	.+2      	; 0x13ee <_Z7action2j+0x88>
    13ec:	80 e0       	ldi	r24, 0x00	; 0
    13ee:	88 23       	and	r24, r24
			Fan_B_Low();
    13f0:	11 f0       	breq	.+4      	; 0x13f6 <_Z7action2j+0x90>
    13f2:	7a df       	rcall	.-268    	; 0x12e8 <_Z9Fan_B_Lowv>
			Fan_A_Low();
    13f4:	70 df       	rcall	.-288    	; 0x12d6 <_Z9Fan_A_Lowv>
    13f6:	ff 90       	pop	r15
		}
	}
}
    13f8:	ef 90       	pop	r14
    13fa:	df 90       	pop	r13
    13fc:	cf 90       	pop	r12
    13fe:	08 95       	ret

00001400 <_Z10WindowMoveji>:
    1400:	61 30       	cpi	r22, 0x01	; 1


void WindowMove(unsigned int val, int open) {
	unsigned int dist;
	if(open == 1){ //open
    1402:	71 05       	cpc	r23, r1
    1404:	79 f4       	brne	.+30     	; 0x1424 <_Z10WindowMoveji+0x24>
		dist = (150-val); // * 90 / 50; //최대 폐쇄 길이 100mm 최대 개방 길이 150mm , 피니언 반지름 32.05mm => 둘레 =>  50mm 렉 이동을 위해서는 약 90도 회전 필요
    1406:	26 e9       	ldi	r18, 0x96	; 150
    1408:	30 e0       	ldi	r19, 0x00	; 0
    140a:	a9 01       	movw	r20, r18
    140c:	48 1b       	sub	r20, r24
    140e:	59 0b       	sbc	r21, r25
		if(dist < 15){
    1410:	4f 30       	cpi	r20, 0x0F	; 15
    1412:	51 05       	cpc	r21, r1
    1414:	10 f4       	brcc	.+4      	; 0x141a <_Z10WindowMoveji+0x1a>
			dyna150();
    1416:	82 cd       	rjmp	.-1276   	; 0xf1c <_Z7dyna150v>
    1418:	08 95       	ret
		}
		else if(dist > 15){
    141a:	40 31       	cpi	r20, 0x10	; 16
    141c:	51 05       	cpc	r21, r1
			dyna110();
    141e:	60 f0       	brcs	.+24     	; 0x1438 <_Z10WindowMoveji+0x38>
    1420:	76 cd       	rjmp	.-1300   	; 0xf0e <_Z7dyna110v>
    1422:	08 95       	ret
		}
	}
	else {//close
		dist = (val - 100);
    1424:	84 56       	subi	r24, 0x64	; 100
    1426:	91 09       	sbc	r25, r1
		if(dist < 15){
    1428:	8f 30       	cpi	r24, 0x0F	; 15
    142a:	91 05       	cpc	r25, r1
			
			dyna170();
    142c:	10 f4       	brcc	.+4      	; 0x1432 <_Z10WindowMoveji+0x32>
    142e:	7d cd       	rjmp	.-1286   	; 0xf2a <_Z7dyna170v>
		}
		else if(dist > 15){
    1430:	08 95       	ret
    1432:	40 97       	sbiw	r24, 0x10	; 16
			dyna200();
    1434:	08 f0       	brcs	.+2      	; 0x1438 <_Z10WindowMoveji+0x38>
    1436:	80 cd       	rjmp	.-1280   	; 0xf38 <_Z7dyna200v>
    1438:	08 95       	ret

0000143a <_Z10OpenWindowji>:
		}
	}
	
}

void OpenWindow(unsigned int val,int open){ //창문 조절 딜레이 주의
    143a:	0f 93       	push	r16
    143c:	1f 93       	push	r17
    143e:	cf 93       	push	r28
    1440:	df 93       	push	r29
    1442:	ec 01       	movw	r28, r24
    1444:	8b 01       	movw	r16, r22
	servo_down();
    1446:	81 de       	rcall	.-766    	; 0x114a <_Z10servo_downv>
	#else
		//round up by default
		__ticks_dc = (uint32_t)(ceil(fabs(__tmp)));
	#endif

	__builtin_avr_delay_cycles(__ticks_dc);
    1448:	2f ef       	ldi	r18, 0xFF	; 255
    144a:	83 ed       	ldi	r24, 0xD3	; 211
    144c:	90 e3       	ldi	r25, 0x30	; 48
    144e:	21 50       	subi	r18, 0x01	; 1
    1450:	80 40       	sbci	r24, 0x00	; 0
    1452:	90 40       	sbci	r25, 0x00	; 0
    1454:	e1 f7       	brne	.-8      	; 0x144e <_Z10OpenWindowji+0x14>
    1456:	00 c0       	rjmp	.+0      	; 0x1458 <_Z10OpenWindowji+0x1e>
	_delay_ms(1000);
	dyna150();
    1458:	00 00       	nop
    145a:	60 dd       	rcall	.-1344   	; 0xf1c <_Z7dyna150v>
    145c:	2f ef       	ldi	r18, 0xFF	; 255
    145e:	83 ed       	ldi	r24, 0xD3	; 211
    1460:	90 e3       	ldi	r25, 0x30	; 48
    1462:	21 50       	subi	r18, 0x01	; 1
    1464:	80 40       	sbci	r24, 0x00	; 0
    1466:	90 40       	sbci	r25, 0x00	; 0
    1468:	e1 f7       	brne	.-8      	; 0x1462 <_Z10OpenWindowji+0x28>
    146a:	00 c0       	rjmp	.+0      	; 0x146c <_Z10OpenWindowji+0x32>
	_delay_ms(1000);
	servo_up();
    146c:	00 00       	nop
    146e:	68 de       	rcall	.-816    	; 0x1140 <_Z8servo_upv>
    1470:	2f ef       	ldi	r18, 0xFF	; 255
    1472:	83 ed       	ldi	r24, 0xD3	; 211
    1474:	90 e3       	ldi	r25, 0x30	; 48
    1476:	21 50       	subi	r18, 0x01	; 1
    1478:	80 40       	sbci	r24, 0x00	; 0
    147a:	90 40       	sbci	r25, 0x00	; 0
    147c:	e1 f7       	brne	.-8      	; 0x1476 <_Z10OpenWindowji+0x3c>
    147e:	00 c0       	rjmp	.+0      	; 0x1480 <_Z10OpenWindowji+0x46>
	_delay_ms(1000);
	WindowMove(val,open);
    1480:	00 00       	nop
    1482:	b8 01       	movw	r22, r16
    1484:	ce 01       	movw	r24, r28
    1486:	bc df       	rcall	.-136    	; 0x1400 <_Z10WindowMoveji>
    1488:	2f ef       	ldi	r18, 0xFF	; 255
    148a:	83 ed       	ldi	r24, 0xD3	; 211
    148c:	90 e3       	ldi	r25, 0x30	; 48
    148e:	21 50       	subi	r18, 0x01	; 1
    1490:	80 40       	sbci	r24, 0x00	; 0
    1492:	90 40       	sbci	r25, 0x00	; 0
    1494:	e1 f7       	brne	.-8      	; 0x148e <_Z10OpenWindowji+0x54>
    1496:	00 c0       	rjmp	.+0      	; 0x1498 <_Z10OpenWindowji+0x5e>
	_delay_ms(1000);
	servo_down();
    1498:	00 00       	nop
    149a:	57 de       	rcall	.-850    	; 0x114a <_Z10servo_downv>
}
    149c:	df 91       	pop	r29
    149e:	cf 91       	pop	r28
    14a0:	1f 91       	pop	r17
    14a2:	0f 91       	pop	r16
    14a4:	08 95       	ret

000014a6 <_Z7action0jj>:
	USART1_Transmit_UINT(adc_to_cel_LM35(a_adc)); // LM35 to celcius
	USART1_Transmit('o');USART1_Transmit('C');
	USART1_Transmit('\r'); //줄넘김.
}

void action0(unsigned int val, unsigned int val2){ //유해가스 성분 일정량 이상 검출시 서보 모터로 창문 자동개방  팬 회전
    14a6:	cf 93       	push	r28
    14a8:	df 93       	push	r29
    14aa:	eb 01       	movw	r28, r22
	if(val >= 2 && val < 4){
    14ac:	9c 01       	movw	r18, r24
    14ae:	22 50       	subi	r18, 0x02	; 2
    14b0:	31 09       	sbc	r19, r1
    14b2:	22 30       	cpi	r18, 0x02	; 2
    14b4:	31 05       	cpc	r19, r1
    14b6:	40 f4       	brcc	.+16     	; 0x14c8 <_Z7action0jj+0x22>
		lcdNumber(1,15,'x');
    14b8:	48 e7       	ldi	r20, 0x78	; 120
    14ba:	50 e0       	ldi	r21, 0x00	; 0
    14bc:	6f e0       	ldi	r22, 0x0F	; 15
    14be:	81 e0       	ldi	r24, 0x01	; 1
    14c0:	d4 dd       	rcall	.-1112   	; 0x106a <_Z9lcdNumberhhi>
		Fan_A_High();
    14c2:	ef de       	rcall	.-546    	; 0x12a2 <_Z10Fan_A_Highv>
		Fan_B_High();
    14c4:	fb de       	rcall	.-522    	; 0x12bc <_Z10Fan_B_Highv>
    14c6:	1b c0       	rjmp	.+54     	; 0x14fe <_Z7action0jj+0x58>
	}
	else if(val > 4){
    14c8:	05 97       	sbiw	r24, 0x05	; 5
		Fan_A_High();
    14ca:	98 f0       	brcs	.+38     	; 0x14f2 <_Z7action0jj+0x4c>
    14cc:	ea de       	rcall	.-556    	; 0x12a2 <_Z10Fan_A_Highv>
		Fan_B_High();
    14ce:	f6 de       	rcall	.-532    	; 0x12bc <_Z10Fan_B_Highv>
    14d0:	80 91 b4 01 	lds	r24, 0x01B4	; 0x8001b4 <windowFlag>
		if(windowFlag == 0){
    14d4:	90 91 b5 01 	lds	r25, 0x01B5	; 0x8001b5 <windowFlag+0x1>
    14d8:	89 2b       	or	r24, r25
    14da:	89 f4       	brne	.+34     	; 0x14fe <_Z7action0jj+0x58>
			OpenWindow(val2,1);// warning open window by servo
    14dc:	61 e0       	ldi	r22, 0x01	; 1
    14de:	70 e0       	ldi	r23, 0x00	; 0
    14e0:	ce 01       	movw	r24, r28
    14e2:	ab df       	rcall	.-170    	; 0x143a <_Z10OpenWindowji>
    14e4:	81 e0       	ldi	r24, 0x01	; 1
			windowFlag = 1;
    14e6:	90 e0       	ldi	r25, 0x00	; 0
    14e8:	90 93 b5 01 	sts	0x01B5, r25	; 0x8001b5 <windowFlag+0x1>
    14ec:	80 93 b4 01 	sts	0x01B4, r24	; 0x8001b4 <windowFlag>
    14f0:	06 c0       	rjmp	.+12     	; 0x14fe <_Z7action0jj+0x58>
		}
	}
	else{
		windowFlag = 0;
    14f2:	10 92 b5 01 	sts	0x01B5, r1	; 0x8001b5 <windowFlag+0x1>
    14f6:	10 92 b4 01 	sts	0x01B4, r1	; 0x8001b4 <windowFlag>
		Fan_A_Stop();
    14fa:	ff de       	rcall	.-514    	; 0x12fa <_Z10Fan_A_Stopv>
    14fc:	05 df       	rcall	.-502    	; 0x1308 <_Z10Fan_B_Stopv>
		Fan_B_Stop();
    14fe:	df 91       	pop	r29
    1500:	cf 91       	pop	r28
	}
}
    1502:	08 95       	ret

00001504 <_Z7action4j>:
    1504:	85 36       	cpi	r24, 0x65	; 101
    1506:	91 05       	cpc	r25, r1
	_delay_ms(1000);
	servo_down();
}

void action4(unsigned int val){ //화재 경보 
	if(val > 100){
    1508:	10 f0       	brcs	.+4      	; 0x150e <_Z7action4j+0xa>
		buzzer_ON();
    150a:	05 cf       	rjmp	.-502    	; 0x1316 <_Z9buzzer_ONv>
    150c:	08 95       	ret
	}
	else{
		buzzer_OFF();
    150e:	27 cf       	rjmp	.-434    	; 0x135e <_Z10buzzer_OFFv>
    1510:	08 95       	ret

00001512 <_Z7action5j>:
    1512:	87 33       	cpi	r24, 0x37	; 55
	}
}

void action5(unsigned int val){//불쾌지수 LED표현
	if(val < 55){
    1514:	91 05       	cpc	r25, r1
    1516:	28 f4       	brcc	.+10     	; 0x1522 <_Z7action5j+0x10>
		set_RGBLED(BLUE);
    1518:	83 e0       	ldi	r24, 0x03	; 3
    151a:	90 e0       	ldi	r25, 0x00	; 0
    151c:	0c 94 ec 00 	jmp	0x1d8	; 0x1d8 <_Z10set_RGBLEDi>
    1520:	08 95       	ret
	}
	else if(val < 75){
    1522:	8b 34       	cpi	r24, 0x4B	; 75
    1524:	91 05       	cpc	r25, r1
    1526:	28 f4       	brcc	.+10     	; 0x1532 <_Z7action5j+0x20>
		set_RGBLED(GREEN);
    1528:	82 e0       	ldi	r24, 0x02	; 2
    152a:	90 e0       	ldi	r25, 0x00	; 0
    152c:	0c 94 ec 00 	jmp	0x1d8	; 0x1d8 <_Z10set_RGBLEDi>
    1530:	08 95       	ret
	}
	else{
		set_RGBLED(PURPLE);
    1532:	84 e0       	ldi	r24, 0x04	; 4
    1534:	90 e0       	ldi	r25, 0x00	; 0
    1536:	0c 94 ec 00 	jmp	0x1d8	; 0x1d8 <_Z10set_RGBLEDi>
    153a:	08 95       	ret

0000153c <__vector_10>:
int cnt = 0;
int lcd_count = 0;
int windowFlag = 0;
unsigned int val[6];
int buz_flag = 0;
ISR(TIMER2_OVF_vect){//제어주기16.384ms
    153c:	1f 92       	push	r1
    153e:	0f 92       	push	r0
    1540:	0f b6       	in	r0, 0x3f	; 63
    1542:	0f 92       	push	r0
    1544:	11 24       	eor	r1, r1
    1546:	0b b6       	in	r0, 0x3b	; 59
    1548:	0f 92       	push	r0
    154a:	2f 93       	push	r18
    154c:	3f 93       	push	r19
    154e:	4f 93       	push	r20
    1550:	5f 93       	push	r21
    1552:	6f 93       	push	r22
    1554:	7f 93       	push	r23
    1556:	8f 93       	push	r24
    1558:	9f 93       	push	r25
    155a:	af 93       	push	r26
    155c:	bf 93       	push	r27
    155e:	cf 93       	push	r28
    1560:	df 93       	push	r29
    1562:	ef 93       	push	r30
    1564:	ff 93       	push	r31
	cli();
    1566:	f8 94       	cli
	//control part//////////////
	unsigned int a_adc;
	//lcdString(0,0,"start");
	if(lcd_count < 20){
    1568:	80 91 b6 01 	lds	r24, 0x01B6	; 0x8001b6 <lcd_count>
    156c:	90 91 b7 01 	lds	r25, 0x01B7	; 0x8001b7 <lcd_count+0x1>
    1570:	84 31       	cpi	r24, 0x14	; 20
    1572:	91 05       	cpc	r25, r1
    1574:	34 f4       	brge	.+12     	; 0x1582 <__vector_10+0x46>
		lcd_count++;
    1576:	01 96       	adiw	r24, 0x01	; 1
    1578:	90 93 b7 01 	sts	0x01B7, r25	; 0x8001b7 <lcd_count+0x1>
    157c:	80 93 b6 01 	sts	0x01B6, r24	; 0x8001b6 <lcd_count>
    1580:	05 c0       	rjmp	.+10     	; 0x158c <__vector_10+0x50>
	}
	else{
		lcd_count = 0;
    1582:	10 92 b7 01 	sts	0x01B7, r1	; 0x8001b7 <lcd_count+0x1>
    1586:	10 92 b6 01 	sts	0x01B6, r1	; 0x8001b6 <lcd_count>
		lcdClear(); //lcd 주기적 청소
    158a:	24 dd       	rcall	.-1464   	; 0xfd4 <_Z8lcdClearv>
	//buzzer_ON();
	//set_RGBLED(BLUE);
	//servo_down();
	//PacketTX(1,0x000,0);
	//set_RGBLED(4);
	switch(cnt){
    158c:	e0 91 b8 01 	lds	r30, 0x01B8	; 0x8001b8 <cnt>
    1590:	f0 91 b9 01 	lds	r31, 0x01B9	; 0x8001b9 <cnt+0x1>
    1594:	e7 30       	cpi	r30, 0x07	; 7
    1596:	f1 05       	cpc	r31, r1
    1598:	08 f0       	brcs	.+2      	; 0x159c <__vector_10+0x60>
    159a:	2c c1       	rjmp	.+600    	; 0x17f4 <__vector_10+0x2b8>
    159c:	e1 5b       	subi	r30, 0xB1	; 177
    159e:	ff 4f       	sbci	r31, 0xFF	; 255
    15a0:	d4 c4       	rjmp	.+2472   	; 0x1f4a <__tablejump2__>
		// sensor processing
		case 0 : // GSBT11
			a_adc = get_adc(0);
    15a2:	80 e0       	ldi	r24, 0x00	; 0
    15a4:	90 e0       	ldi	r25, 0x00	; 0
    15a6:	0d de       	rcall	.-998    	; 0x11c2 <_Z7get_adci>
			a_adc = ((unsigned int) IIR_LPF_GS((double)a_adc));
    15a8:	bc 01       	movw	r22, r24
    15aa:	80 e0       	ldi	r24, 0x00	; 0
    15ac:	90 e0       	ldi	r25, 0x00	; 0
    15ae:	49 d2       	rcall	.+1170   	; 0x1a42 <__floatunsisf>
    15b0:	d1 d9       	rcall	.-3166   	; 0x954 <_Z10IIR_LPF_GSd>
			val[0] = GSBT11_ppm(a_adc);
    15b2:	1b d2       	rcall	.+1078   	; 0x19ea <__fixunssfsi>
    15b4:	cb 01       	movw	r24, r22
    15b6:	2a d8       	rcall	.-4012   	; 0x60c <_Z10GSBT11_ppmi>
    15b8:	90 93 a9 01 	sts	0x01A9, r25	; 0x8001a9 <val+0x1>
    15bc:	80 93 a8 01 	sts	0x01A8, r24	; 0x8001a8 <val>
			USART1_Transmit_UINT(val[cnt]);USART1_Transmit(',');//USART1_Transmit('\r'); //줄넘// USART1_Transmit('p'); USART1_Transmit('p'); USART1_Transmit('m');	
    15c0:	e0 91 b8 01 	lds	r30, 0x01B8	; 0x8001b8 <cnt>
    15c4:	f0 91 b9 01 	lds	r31, 0x01B9	; 0x8001b9 <cnt+0x1>
    15c8:	ee 0f       	add	r30, r30
    15ca:	ff 1f       	adc	r31, r31
    15cc:	e8 55       	subi	r30, 0x58	; 88
    15ce:	fe 4f       	sbci	r31, 0xFE	; 254
    15d0:	80 81       	ld	r24, Z
    15d2:	91 81       	ldd	r25, Z+1	; 0x01
    15d4:	0e 94 6f 01 	call	0x2de	; 0x2de <_Z20USART1_Transmit_UINTj>
    15d8:	8c e2       	ldi	r24, 0x2C	; 44
    15da:	0e 94 68 01 	call	0x2d0	; 0x2d0 <_Z15USART1_Transmith>
			//print on LCD
			lcdNumber(0,0,val[cnt]);
    15de:	e0 91 b8 01 	lds	r30, 0x01B8	; 0x8001b8 <cnt>
    15e2:	f0 91 b9 01 	lds	r31, 0x01B9	; 0x8001b9 <cnt+0x1>
    15e6:	ee 0f       	add	r30, r30
    15e8:	ff 1f       	adc	r31, r31
    15ea:	e8 55       	subi	r30, 0x58	; 88
    15ec:	fe 4f       	sbci	r31, 0xFE	; 254
    15ee:	40 81       	ld	r20, Z
    15f0:	51 81       	ldd	r21, Z+1	; 0x01
    15f2:	60 e0       	ldi	r22, 0x00	; 0
    15f4:	80 e0       	ldi	r24, 0x00	; 0
			break;
		case 1: // MQ135
			a_adc = get_adc(1);
    15f6:	39 dd       	rcall	.-1422   	; 0x106a <_Z9lcdNumberhhi>
    15f8:	fd c0       	rjmp	.+506    	; 0x17f4 <__vector_10+0x2b8>
			a_adc = ((unsigned int) IIR_LPF_3((double)a_adc));
    15fa:	81 e0       	ldi	r24, 0x01	; 1
    15fc:	90 e0       	ldi	r25, 0x00	; 0
    15fe:	e1 dd       	rcall	.-1086   	; 0x11c2 <_Z7get_adci>
    1600:	bc 01       	movw	r22, r24
    1602:	80 e0       	ldi	r24, 0x00	; 0
    1604:	90 e0       	ldi	r25, 0x00	; 0
    1606:	1d d2       	rcall	.+1082   	; 0x1a42 <__floatunsisf>
    1608:	9b db       	rcall	.-2250   	; 0xd40 <_Z9IIR_LPF_3d>
			//val[1] = getRZero(a_adc);
			val[1] = getPPM(a_adc);
    160a:	ef d1       	rcall	.+990    	; 0x19ea <__fixunssfsi>
    160c:	cb 01       	movw	r24, r22
    160e:	0e 94 d8 00 	call	0x1b0	; 0x1b0 <_Z6getPPMi>
    1612:	eb d1       	rcall	.+982    	; 0x19ea <__fixunssfsi>
    1614:	70 93 ab 01 	sts	0x01AB, r23	; 0x8001ab <val+0x3>
    1618:	60 93 aa 01 	sts	0x01AA, r22	; 0x8001aa <val+0x2>
			USART1_Transmit_UINT(val[cnt]);USART1_Transmit(','); //USART1_Transmit('\r');// USART1_Transmit('p'); USART1_Transmit('p'); USART1_Transmit('m');
    161c:	e0 91 b8 01 	lds	r30, 0x01B8	; 0x8001b8 <cnt>
    1620:	f0 91 b9 01 	lds	r31, 0x01B9	; 0x8001b9 <cnt+0x1>
    1624:	ee 0f       	add	r30, r30
    1626:	ff 1f       	adc	r31, r31
    1628:	e8 55       	subi	r30, 0x58	; 88
    162a:	fe 4f       	sbci	r31, 0xFE	; 254
    162c:	80 81       	ld	r24, Z
    162e:	91 81       	ldd	r25, Z+1	; 0x01
    1630:	0e 94 6f 01 	call	0x2de	; 0x2de <_Z20USART1_Transmit_UINTj>
    1634:	8c e2       	ldi	r24, 0x2C	; 44
    1636:	0e 94 68 01 	call	0x2d0	; 0x2d0 <_Z15USART1_Transmith>
			//print on LCD
			lcdString(0,2,"CO2");
    163a:	4d e9       	ldi	r20, 0x9D	; 157
    163c:	51 e0       	ldi	r21, 0x01	; 1
    163e:	62 e0       	ldi	r22, 0x02	; 2
    1640:	80 e0       	ldi	r24, 0x00	; 0
			lcdNumber(0,6,val[cnt]);lcdString(0,9,"ppm");
    1642:	06 dd       	rcall	.-1524   	; 0x1050 <_Z9lcdStringhhPc>
    1644:	e0 91 b8 01 	lds	r30, 0x01B8	; 0x8001b8 <cnt>
    1648:	f0 91 b9 01 	lds	r31, 0x01B9	; 0x8001b9 <cnt+0x1>
    164c:	ee 0f       	add	r30, r30
    164e:	ff 1f       	adc	r31, r31
    1650:	e8 55       	subi	r30, 0x58	; 88
    1652:	fe 4f       	sbci	r31, 0xFE	; 254
    1654:	40 81       	ld	r20, Z
    1656:	51 81       	ldd	r21, Z+1	; 0x01
    1658:	66 e0       	ldi	r22, 0x06	; 6
    165a:	80 e0       	ldi	r24, 0x00	; 0
    165c:	06 dd       	rcall	.-1524   	; 0x106a <_Z9lcdNumberhhi>
    165e:	41 ea       	ldi	r20, 0xA1	; 161
			break;
    1660:	51 e0       	ldi	r21, 0x01	; 1
		case 2: //CDS
			a_adc = get_adc(2);
    1662:	69 e0       	ldi	r22, 0x09	; 9
    1664:	80 e0       	ldi	r24, 0x00	; 0
    1666:	f4 dc       	rcall	.-1560   	; 0x1050 <_Z9lcdStringhhPc>
    1668:	c5 c0       	rjmp	.+394    	; 0x17f4 <__vector_10+0x2b8>
			a_adc = ((unsigned int) IIR_LPF_CDS((double)a_adc));
    166a:	82 e0       	ldi	r24, 0x02	; 2
    166c:	90 e0       	ldi	r25, 0x00	; 0
    166e:	a9 dd       	rcall	.-1198   	; 0x11c2 <_Z7get_adci>
    1670:	bc 01       	movw	r22, r24
    1672:	80 e0       	ldi	r24, 0x00	; 0
    1674:	90 e0       	ldi	r25, 0x00	; 0
    1676:	e5 d1       	rcall	.+970    	; 0x1a42 <__floatunsisf>
    1678:	15 da       	rcall	.-3030   	; 0xaa4 <_Z11IIR_LPF_CDSd>
    167a:	b7 d1       	rcall	.+878    	; 0x19ea <__fixunssfsi>
			val[2] = adc_to_Lux(a_adc);
    167c:	cb 01       	movw	r24, r22
    167e:	0e 94 b0 02 	call	0x560	; 0x560 <_Z10adc_to_Luxj>
    1682:	90 93 ad 01 	sts	0x01AD, r25	; 0x8001ad <val+0x5>
    1686:	80 93 ac 01 	sts	0x01AC, r24	; 0x8001ac <val+0x4>
			USART1_Transmit_UINT(val[cnt]);USART1_Transmit(',');// USART1_Transmit('L'); USART1_Transmit('u'); USART1_Transmit('x');
    168a:	e0 91 b8 01 	lds	r30, 0x01B8	; 0x8001b8 <cnt>
    168e:	f0 91 b9 01 	lds	r31, 0x01B9	; 0x8001b9 <cnt+0x1>
    1692:	ee 0f       	add	r30, r30
    1694:	ff 1f       	adc	r31, r31
    1696:	e8 55       	subi	r30, 0x58	; 88
    1698:	fe 4f       	sbci	r31, 0xFE	; 254
    169a:	80 81       	ld	r24, Z
    169c:	91 81       	ldd	r25, Z+1	; 0x01
    169e:	0e 94 6f 01 	call	0x2de	; 0x2de <_Z20USART1_Transmit_UINTj>
    16a2:	8c e2       	ldi	r24, 0x2C	; 44
			//print on LCD
			lcdNumber(0,12,val[cnt]);
    16a4:	0e 94 68 01 	call	0x2d0	; 0x2d0 <_Z15USART1_Transmith>
    16a8:	e0 91 b8 01 	lds	r30, 0x01B8	; 0x8001b8 <cnt>
    16ac:	f0 91 b9 01 	lds	r31, 0x01B9	; 0x8001b9 <cnt+0x1>
    16b0:	ee 0f       	add	r30, r30
    16b2:	ff 1f       	adc	r31, r31
    16b4:	e8 55       	subi	r30, 0x58	; 88
    16b6:	fe 4f       	sbci	r31, 0xFE	; 254
    16b8:	40 81       	ld	r20, Z
    16ba:	51 81       	ldd	r21, Z+1	; 0x01
			break;
    16bc:	6c e0       	ldi	r22, 0x0C	; 12
		case 3: //PSD
			a_adc = get_adc(3);
    16be:	80 e0       	ldi	r24, 0x00	; 0
    16c0:	d4 dc       	rcall	.-1624   	; 0x106a <_Z9lcdNumberhhi>
    16c2:	98 c0       	rjmp	.+304    	; 0x17f4 <__vector_10+0x2b8>
    16c4:	83 e0       	ldi	r24, 0x03	; 3
			a_adc = ((unsigned int) IIR_LPF_psd((double)a_adc));
    16c6:	90 e0       	ldi	r25, 0x00	; 0
    16c8:	7c dd       	rcall	.-1288   	; 0x11c2 <_Z7get_adci>
    16ca:	bc 01       	movw	r22, r24
    16cc:	80 e0       	ldi	r24, 0x00	; 0
    16ce:	90 e0       	ldi	r25, 0x00	; 0
    16d0:	b8 d1       	rcall	.+880    	; 0x1a42 <__floatunsisf>
    16d2:	0e 94 58 03 	call	0x6b0	; 0x6b0 <_Z11IIR_LPF_psdd>
    16d6:	89 d1       	rcall	.+786    	; 0x19ea <__fixunssfsi>
			val[3] = PSD_dist(a_adc);
    16d8:	cb 01       	movw	r24, r22
    16da:	0e 94 fc 01 	call	0x3f8	; 0x3f8 <_Z8PSD_disti>
    16de:	90 93 af 01 	sts	0x01AF, r25	; 0x8001af <val+0x7>
    16e2:	80 93 ae 01 	sts	0x01AE, r24	; 0x8001ae <val+0x6>
			USART1_Transmit_UINT(val[cnt]);USART1_Transmit(','); //USART1_Transmit('m'); USART1_Transmit('m');
    16e6:	e0 91 b8 01 	lds	r30, 0x01B8	; 0x8001b8 <cnt>
    16ea:	f0 91 b9 01 	lds	r31, 0x01B9	; 0x8001b9 <cnt+0x1>
    16ee:	ee 0f       	add	r30, r30
    16f0:	ff 1f       	adc	r31, r31
    16f2:	e8 55       	subi	r30, 0x58	; 88
    16f4:	fe 4f       	sbci	r31, 0xFE	; 254
    16f6:	80 81       	ld	r24, Z
    16f8:	91 81       	ldd	r25, Z+1	; 0x01
    16fa:	0e 94 6f 01 	call	0x2de	; 0x2de <_Z20USART1_Transmit_UINTj>
			//print on LCD
			lcdNumber(1,0,val[cnt]);
    16fe:	8c e2       	ldi	r24, 0x2C	; 44
    1700:	0e 94 68 01 	call	0x2d0	; 0x2d0 <_Z15USART1_Transmith>
    1704:	e0 91 b8 01 	lds	r30, 0x01B8	; 0x8001b8 <cnt>
    1708:	f0 91 b9 01 	lds	r31, 0x01B9	; 0x8001b9 <cnt+0x1>
    170c:	ee 0f       	add	r30, r30
    170e:	ff 1f       	adc	r31, r31
    1710:	e8 55       	subi	r30, 0x58	; 88
    1712:	fe 4f       	sbci	r31, 0xFE	; 254
    1714:	40 81       	ld	r20, Z
    1716:	51 81       	ldd	r21, Z+1	; 0x01
    1718:	60 e0       	ldi	r22, 0x00	; 0
			break;
    171a:	81 e0       	ldi	r24, 0x01	; 1
		case 4: //LM35
			a_adc = get_adc(4);
    171c:	a6 dc       	rcall	.-1716   	; 0x106a <_Z9lcdNumberhhi>
    171e:	6a c0       	rjmp	.+212    	; 0x17f4 <__vector_10+0x2b8>
    1720:	84 e0       	ldi	r24, 0x04	; 4
    1722:	90 e0       	ldi	r25, 0x00	; 0
			a_adc = ((unsigned int) IIR_LPF_LM((double)a_adc));
    1724:	4e dd       	rcall	.-1380   	; 0x11c2 <_Z7get_adci>
    1726:	bc 01       	movw	r22, r24
    1728:	80 e0       	ldi	r24, 0x00	; 0
    172a:	90 e0       	ldi	r25, 0x00	; 0
    172c:	8a d1       	rcall	.+788    	; 0x1a42 <__floatunsisf>
    172e:	62 da       	rcall	.-2876   	; 0xbf4 <_Z10IIR_LPF_LMd>
    1730:	5c d1       	rcall	.+696    	; 0x19ea <__fixunssfsi>
    1732:	cb 01       	movw	r24, r22
    1734:	0e 94 eb 02 	call	0x5d6	; 0x5d6 <_Z15adc_to_cel_LM35j>
			val[4] = adc_to_cel_LM35(a_adc);
    1738:	90 93 b1 01 	sts	0x01B1, r25	; 0x8001b1 <val+0x9>
    173c:	80 93 b0 01 	sts	0x01B0, r24	; 0x8001b0 <val+0x8>
    1740:	e0 91 b8 01 	lds	r30, 0x01B8	; 0x8001b8 <cnt>
			USART1_Transmit_UINT(val[cnt]);USART1_Transmit(','); //USART1_Transmit('o'); USART1_Transmit('C');
    1744:	f0 91 b9 01 	lds	r31, 0x01B9	; 0x8001b9 <cnt+0x1>
    1748:	ee 0f       	add	r30, r30
    174a:	ff 1f       	adc	r31, r31
    174c:	e8 55       	subi	r30, 0x58	; 88
    174e:	fe 4f       	sbci	r31, 0xFE	; 254
    1750:	80 81       	ld	r24, Z
    1752:	91 81       	ldd	r25, Z+1	; 0x01
    1754:	0e 94 6f 01 	call	0x2de	; 0x2de <_Z20USART1_Transmit_UINTj>
			//print on LCD
			lcdNumber(1,6,val[cnt]);
    1758:	8c e2       	ldi	r24, 0x2C	; 44
    175a:	0e 94 68 01 	call	0x2d0	; 0x2d0 <_Z15USART1_Transmith>
    175e:	e0 91 b8 01 	lds	r30, 0x01B8	; 0x8001b8 <cnt>
    1762:	f0 91 b9 01 	lds	r31, 0x01B9	; 0x8001b9 <cnt+0x1>
    1766:	ee 0f       	add	r30, r30
    1768:	ff 1f       	adc	r31, r31
    176a:	e8 55       	subi	r30, 0x58	; 88
    176c:	fe 4f       	sbci	r31, 0xFE	; 254
    176e:	40 81       	ld	r20, Z
    1770:	51 81       	ldd	r21, Z+1	; 0x01
    1772:	66 e0       	ldi	r22, 0x06	; 6
			break;
    1774:	81 e0       	ldi	r24, 0x01	; 1
		case 5: //HTG3535
			a_adc = get_adc(5);
    1776:	79 dc       	rcall	.-1806   	; 0x106a <_Z9lcdNumberhhi>
    1778:	3d c0       	rjmp	.+122    	; 0x17f4 <__vector_10+0x2b8>
    177a:	85 e0       	ldi	r24, 0x05	; 5
    177c:	90 e0       	ldi	r25, 0x00	; 0
			a_adc = ((unsigned int) IIR_LPF_hum((double)a_adc));
    177e:	21 dd       	rcall	.-1470   	; 0x11c2 <_Z7get_adci>
    1780:	bc 01       	movw	r22, r24
    1782:	80 e0       	ldi	r24, 0x00	; 0
    1784:	90 e0       	ldi	r25, 0x00	; 0
    1786:	5d d1       	rcall	.+698    	; 0x1a42 <__floatunsisf>
    1788:	3d d8       	rcall	.-3974   	; 0x804 <_Z11IIR_LPF_humd>
    178a:	2f d1       	rcall	.+606    	; 0x19ea <__fixunssfsi>
    178c:	cb 01       	movw	r24, r22
    178e:	0e 94 2f 02 	call	0x45e	; 0x45e <_Z5humidi>
			val[5] = humid(a_adc);
    1792:	90 93 b3 01 	sts	0x01B3, r25	; 0x8001b3 <val+0xb>
    1796:	80 93 b2 01 	sts	0x01B2, r24	; 0x8001b2 <val+0xa>
    179a:	e0 91 b8 01 	lds	r30, 0x01B8	; 0x8001b8 <cnt>
			USART1_Transmit_UINT(val[cnt]);USART1_Transmit('\r');// USART1_Transmit('%');
    179e:	f0 91 b9 01 	lds	r31, 0x01B9	; 0x8001b9 <cnt+0x1>
    17a2:	ee 0f       	add	r30, r30
    17a4:	ff 1f       	adc	r31, r31
    17a6:	e8 55       	subi	r30, 0x58	; 88
    17a8:	fe 4f       	sbci	r31, 0xFE	; 254
    17aa:	80 81       	ld	r24, Z
    17ac:	91 81       	ldd	r25, Z+1	; 0x01
    17ae:	0e 94 6f 01 	call	0x2de	; 0x2de <_Z20USART1_Transmit_UINTj>
    17b2:	8d e0       	ldi	r24, 0x0D	; 13
			//print on LCD
			lcdNumber(1,12,val[cnt]);
    17b4:	0e 94 68 01 	call	0x2d0	; 0x2d0 <_Z15USART1_Transmith>
    17b8:	e0 91 b8 01 	lds	r30, 0x01B8	; 0x8001b8 <cnt>
    17bc:	f0 91 b9 01 	lds	r31, 0x01B9	; 0x8001b9 <cnt+0x1>
    17c0:	ee 0f       	add	r30, r30
    17c2:	ff 1f       	adc	r31, r31
    17c4:	e8 55       	subi	r30, 0x58	; 88
    17c6:	fe 4f       	sbci	r31, 0xFE	; 254
    17c8:	40 81       	ld	r20, Z
    17ca:	51 81       	ldd	r21, Z+1	; 0x01
    17cc:	6c e0       	ldi	r22, 0x0C	; 12
    17ce:	81 e0       	ldi	r24, 0x01	; 1
			break;
    17d0:	4c dc       	rcall	.-1896   	; 0x106a <_Z9lcdNumberhhi>
		case 6: // action
			action0(val[0],val[3]); //window servo
    17d2:	10 c0       	rjmp	.+32     	; 0x17f4 <__vector_10+0x2b8>
    17d4:	c8 ea       	ldi	r28, 0xA8	; 168
    17d6:	d1 e0       	ldi	r29, 0x01	; 1
    17d8:	6e 81       	ldd	r22, Y+6	; 0x06
    17da:	7f 81       	ldd	r23, Y+7	; 0x07
    17dc:	88 81       	ld	r24, Y
    17de:	99 81       	ldd	r25, Y+1	; 0x01
			action2(val[2]); //bright to  motor speed
    17e0:	62 de       	rcall	.-828    	; 0x14a6 <_Z7action0jj>
    17e2:	8c 81       	ldd	r24, Y+4	; 0x04
    17e4:	9d 81       	ldd	r25, Y+5	; 0x05
    17e6:	bf dd       	rcall	.-1154   	; 0x1366 <_Z7action2j>
			action4(val[4]); //fire alarm buzzer
    17e8:	88 85       	ldd	r24, Y+8	; 0x08
    17ea:	99 85       	ldd	r25, Y+9	; 0x09
    17ec:	8b de       	rcall	.-746    	; 0x1504 <_Z7action4j>
    17ee:	8a 85       	ldd	r24, Y+10	; 0x0a
			action5(val[5]); //RGB LED humidity
    17f0:	9b 85       	ldd	r25, Y+11	; 0x0b
    17f2:	8f de       	rcall	.-738    	; 0x1512 <_Z7action5j>
    17f4:	80 91 b8 01 	lds	r24, 0x01B8	; 0x8001b8 <cnt>
		default:
			break;
	}
	if(cnt < 7){
    17f8:	90 91 b9 01 	lds	r25, 0x01B9	; 0x8001b9 <cnt+0x1>
    17fc:	87 30       	cpi	r24, 0x07	; 7
    17fe:	91 05       	cpc	r25, r1
    1800:	34 f4       	brge	.+12     	; 0x180e <__vector_10+0x2d2>
    1802:	01 96       	adiw	r24, 0x01	; 1
    1804:	90 93 b9 01 	sts	0x01B9, r25	; 0x8001b9 <cnt+0x1>
		cnt++;
    1808:	80 93 b8 01 	sts	0x01B8, r24	; 0x8001b8 <cnt>
    180c:	04 c0       	rjmp	.+8      	; 0x1816 <__vector_10+0x2da>
    180e:	10 92 b9 01 	sts	0x01B9, r1	; 0x8001b9 <cnt+0x1>
	}
	else{
		cnt = 0;
    1812:	10 92 b8 01 	sts	0x01B8, r1	; 0x8001b8 <cnt>
    1816:	80 91 a6 01 	lds	r24, 0x01A6	; 0x8001a6 <__data_end>
	}
	if(buz_flag){
    181a:	90 91 a7 01 	lds	r25, 0x01A7	; 0x8001a7 <__data_end+0x1>
    181e:	89 2b       	or	r24, r25
    1820:	09 f0       	breq	.+2      	; 0x1824 <__vector_10+0x2e8>
    1822:	79 dd       	rcall	.-1294   	; 0x1316 <_Z9buzzer_ONv>
    1824:	78 94       	sei
		buzzer_ON();
    1826:	ff 91       	pop	r31
    1828:	ef 91       	pop	r30
	}
	//TCNT2 = 255-156;
	///////////////////////////
	sei();
    182a:	df 91       	pop	r29
}
    182c:	cf 91       	pop	r28
    182e:	bf 91       	pop	r27
    1830:	af 91       	pop	r26
    1832:	9f 91       	pop	r25
    1834:	8f 91       	pop	r24
    1836:	7f 91       	pop	r23
    1838:	6f 91       	pop	r22
    183a:	5f 91       	pop	r21
    183c:	4f 91       	pop	r20
    183e:	3f 91       	pop	r19
    1840:	2f 91       	pop	r18
    1842:	0f 90       	pop	r0
    1844:	0b be       	out	0x3b, r0	; 59
    1846:	0f 90       	pop	r0
    1848:	0f be       	out	0x3f, r0	; 63
    184a:	0f 90       	pop	r0
    184c:	1f 90       	pop	r1
    184e:	18 95       	reti

00001850 <__subsf3>:
    1850:	50 58       	subi	r21, 0x80	; 128

00001852 <__addsf3>:
    1852:	bb 27       	eor	r27, r27
    1854:	aa 27       	eor	r26, r26
    1856:	0e d0       	rcall	.+28     	; 0x1874 <__addsf3x>
    1858:	48 c1       	rjmp	.+656    	; 0x1aea <__fp_round>
    185a:	39 d1       	rcall	.+626    	; 0x1ace <__fp_pscA>
    185c:	30 f0       	brcs	.+12     	; 0x186a <__addsf3+0x18>
    185e:	3e d1       	rcall	.+636    	; 0x1adc <__fp_pscB>
    1860:	20 f0       	brcs	.+8      	; 0x186a <__addsf3+0x18>
    1862:	31 f4       	brne	.+12     	; 0x1870 <__addsf3+0x1e>
    1864:	9f 3f       	cpi	r25, 0xFF	; 255
    1866:	11 f4       	brne	.+4      	; 0x186c <__addsf3+0x1a>
    1868:	1e f4       	brtc	.+6      	; 0x1870 <__addsf3+0x1e>
    186a:	2e c1       	rjmp	.+604    	; 0x1ac8 <__fp_nan>
    186c:	0e f4       	brtc	.+2      	; 0x1870 <__addsf3+0x1e>
    186e:	e0 95       	com	r30
    1870:	e7 fb       	bst	r30, 7
    1872:	24 c1       	rjmp	.+584    	; 0x1abc <__fp_inf>

00001874 <__addsf3x>:
    1874:	e9 2f       	mov	r30, r25
    1876:	4a d1       	rcall	.+660    	; 0x1b0c <__fp_split3>
    1878:	80 f3       	brcs	.-32     	; 0x185a <__addsf3+0x8>
    187a:	ba 17       	cp	r27, r26
    187c:	62 07       	cpc	r22, r18
    187e:	73 07       	cpc	r23, r19
    1880:	84 07       	cpc	r24, r20
    1882:	95 07       	cpc	r25, r21
    1884:	18 f0       	brcs	.+6      	; 0x188c <__addsf3x+0x18>
    1886:	71 f4       	brne	.+28     	; 0x18a4 <__addsf3x+0x30>
    1888:	9e f5       	brtc	.+102    	; 0x18f0 <__addsf3x+0x7c>
    188a:	62 c1       	rjmp	.+708    	; 0x1b50 <__fp_zero>
    188c:	0e f4       	brtc	.+2      	; 0x1890 <__addsf3x+0x1c>
    188e:	e0 95       	com	r30
    1890:	0b 2e       	mov	r0, r27
    1892:	ba 2f       	mov	r27, r26
    1894:	a0 2d       	mov	r26, r0
    1896:	0b 01       	movw	r0, r22
    1898:	b9 01       	movw	r22, r18
    189a:	90 01       	movw	r18, r0
    189c:	0c 01       	movw	r0, r24
    189e:	ca 01       	movw	r24, r20
    18a0:	a0 01       	movw	r20, r0
    18a2:	11 24       	eor	r1, r1
    18a4:	ff 27       	eor	r31, r31
    18a6:	59 1b       	sub	r21, r25
    18a8:	99 f0       	breq	.+38     	; 0x18d0 <__addsf3x+0x5c>
    18aa:	59 3f       	cpi	r21, 0xF9	; 249
    18ac:	50 f4       	brcc	.+20     	; 0x18c2 <__addsf3x+0x4e>
    18ae:	50 3e       	cpi	r21, 0xE0	; 224
    18b0:	68 f1       	brcs	.+90     	; 0x190c <__addsf3x+0x98>
    18b2:	1a 16       	cp	r1, r26
    18b4:	f0 40       	sbci	r31, 0x00	; 0
    18b6:	a2 2f       	mov	r26, r18
    18b8:	23 2f       	mov	r18, r19
    18ba:	34 2f       	mov	r19, r20
    18bc:	44 27       	eor	r20, r20
    18be:	58 5f       	subi	r21, 0xF8	; 248
    18c0:	f3 cf       	rjmp	.-26     	; 0x18a8 <__addsf3x+0x34>
    18c2:	46 95       	lsr	r20
    18c4:	37 95       	ror	r19
    18c6:	27 95       	ror	r18
    18c8:	a7 95       	ror	r26
    18ca:	f0 40       	sbci	r31, 0x00	; 0
    18cc:	53 95       	inc	r21
    18ce:	c9 f7       	brne	.-14     	; 0x18c2 <__addsf3x+0x4e>
    18d0:	7e f4       	brtc	.+30     	; 0x18f0 <__addsf3x+0x7c>
    18d2:	1f 16       	cp	r1, r31
    18d4:	ba 0b       	sbc	r27, r26
    18d6:	62 0b       	sbc	r22, r18
    18d8:	73 0b       	sbc	r23, r19
    18da:	84 0b       	sbc	r24, r20
    18dc:	ba f0       	brmi	.+46     	; 0x190c <__addsf3x+0x98>
    18de:	91 50       	subi	r25, 0x01	; 1
    18e0:	a1 f0       	breq	.+40     	; 0x190a <__addsf3x+0x96>
    18e2:	ff 0f       	add	r31, r31
    18e4:	bb 1f       	adc	r27, r27
    18e6:	66 1f       	adc	r22, r22
    18e8:	77 1f       	adc	r23, r23
    18ea:	88 1f       	adc	r24, r24
    18ec:	c2 f7       	brpl	.-16     	; 0x18de <__addsf3x+0x6a>
    18ee:	0e c0       	rjmp	.+28     	; 0x190c <__addsf3x+0x98>
    18f0:	ba 0f       	add	r27, r26
    18f2:	62 1f       	adc	r22, r18
    18f4:	73 1f       	adc	r23, r19
    18f6:	84 1f       	adc	r24, r20
    18f8:	48 f4       	brcc	.+18     	; 0x190c <__addsf3x+0x98>
    18fa:	87 95       	ror	r24
    18fc:	77 95       	ror	r23
    18fe:	67 95       	ror	r22
    1900:	b7 95       	ror	r27
    1902:	f7 95       	ror	r31
    1904:	9e 3f       	cpi	r25, 0xFE	; 254
    1906:	08 f0       	brcs	.+2      	; 0x190a <__addsf3x+0x96>
    1908:	b3 cf       	rjmp	.-154    	; 0x1870 <__addsf3+0x1e>
    190a:	93 95       	inc	r25
    190c:	88 0f       	add	r24, r24
    190e:	08 f0       	brcs	.+2      	; 0x1912 <__addsf3x+0x9e>
    1910:	99 27       	eor	r25, r25
    1912:	ee 0f       	add	r30, r30
    1914:	97 95       	ror	r25
    1916:	87 95       	ror	r24
    1918:	08 95       	ret

0000191a <__divsf3>:
    191a:	0c d0       	rcall	.+24     	; 0x1934 <__divsf3x>
    191c:	e6 c0       	rjmp	.+460    	; 0x1aea <__fp_round>
    191e:	de d0       	rcall	.+444    	; 0x1adc <__fp_pscB>
    1920:	40 f0       	brcs	.+16     	; 0x1932 <__divsf3+0x18>
    1922:	d5 d0       	rcall	.+426    	; 0x1ace <__fp_pscA>
    1924:	30 f0       	brcs	.+12     	; 0x1932 <__divsf3+0x18>
    1926:	21 f4       	brne	.+8      	; 0x1930 <__divsf3+0x16>
    1928:	5f 3f       	cpi	r21, 0xFF	; 255
    192a:	19 f0       	breq	.+6      	; 0x1932 <__divsf3+0x18>
    192c:	c7 c0       	rjmp	.+398    	; 0x1abc <__fp_inf>
    192e:	51 11       	cpse	r21, r1
    1930:	10 c1       	rjmp	.+544    	; 0x1b52 <__fp_szero>
    1932:	ca c0       	rjmp	.+404    	; 0x1ac8 <__fp_nan>

00001934 <__divsf3x>:
    1934:	eb d0       	rcall	.+470    	; 0x1b0c <__fp_split3>
    1936:	98 f3       	brcs	.-26     	; 0x191e <__divsf3+0x4>

00001938 <__divsf3_pse>:
    1938:	99 23       	and	r25, r25
    193a:	c9 f3       	breq	.-14     	; 0x192e <__divsf3+0x14>
    193c:	55 23       	and	r21, r21
    193e:	b1 f3       	breq	.-20     	; 0x192c <__divsf3+0x12>
    1940:	95 1b       	sub	r25, r21
    1942:	55 0b       	sbc	r21, r21
    1944:	bb 27       	eor	r27, r27
    1946:	aa 27       	eor	r26, r26
    1948:	62 17       	cp	r22, r18
    194a:	73 07       	cpc	r23, r19
    194c:	84 07       	cpc	r24, r20
    194e:	38 f0       	brcs	.+14     	; 0x195e <__divsf3_pse+0x26>
    1950:	9f 5f       	subi	r25, 0xFF	; 255
    1952:	5f 4f       	sbci	r21, 0xFF	; 255
    1954:	22 0f       	add	r18, r18
    1956:	33 1f       	adc	r19, r19
    1958:	44 1f       	adc	r20, r20
    195a:	aa 1f       	adc	r26, r26
    195c:	a9 f3       	breq	.-22     	; 0x1948 <__divsf3_pse+0x10>
    195e:	33 d0       	rcall	.+102    	; 0x19c6 <__divsf3_pse+0x8e>
    1960:	0e 2e       	mov	r0, r30
    1962:	3a f0       	brmi	.+14     	; 0x1972 <__divsf3_pse+0x3a>
    1964:	e0 e8       	ldi	r30, 0x80	; 128
    1966:	30 d0       	rcall	.+96     	; 0x19c8 <__divsf3_pse+0x90>
    1968:	91 50       	subi	r25, 0x01	; 1
    196a:	50 40       	sbci	r21, 0x00	; 0
    196c:	e6 95       	lsr	r30
    196e:	00 1c       	adc	r0, r0
    1970:	ca f7       	brpl	.-14     	; 0x1964 <__divsf3_pse+0x2c>
    1972:	29 d0       	rcall	.+82     	; 0x19c6 <__divsf3_pse+0x8e>
    1974:	fe 2f       	mov	r31, r30
    1976:	27 d0       	rcall	.+78     	; 0x19c6 <__divsf3_pse+0x8e>
    1978:	66 0f       	add	r22, r22
    197a:	77 1f       	adc	r23, r23
    197c:	88 1f       	adc	r24, r24
    197e:	bb 1f       	adc	r27, r27
    1980:	26 17       	cp	r18, r22
    1982:	37 07       	cpc	r19, r23
    1984:	48 07       	cpc	r20, r24
    1986:	ab 07       	cpc	r26, r27
    1988:	b0 e8       	ldi	r27, 0x80	; 128
    198a:	09 f0       	breq	.+2      	; 0x198e <__divsf3_pse+0x56>
    198c:	bb 0b       	sbc	r27, r27
    198e:	80 2d       	mov	r24, r0
    1990:	bf 01       	movw	r22, r30
    1992:	ff 27       	eor	r31, r31
    1994:	93 58       	subi	r25, 0x83	; 131
    1996:	5f 4f       	sbci	r21, 0xFF	; 255
    1998:	2a f0       	brmi	.+10     	; 0x19a4 <__divsf3_pse+0x6c>
    199a:	9e 3f       	cpi	r25, 0xFE	; 254
    199c:	51 05       	cpc	r21, r1
    199e:	68 f0       	brcs	.+26     	; 0x19ba <__divsf3_pse+0x82>
    19a0:	8d c0       	rjmp	.+282    	; 0x1abc <__fp_inf>
    19a2:	d7 c0       	rjmp	.+430    	; 0x1b52 <__fp_szero>
    19a4:	5f 3f       	cpi	r21, 0xFF	; 255
    19a6:	ec f3       	brlt	.-6      	; 0x19a2 <__divsf3_pse+0x6a>
    19a8:	98 3e       	cpi	r25, 0xE8	; 232
    19aa:	dc f3       	brlt	.-10     	; 0x19a2 <__divsf3_pse+0x6a>
    19ac:	86 95       	lsr	r24
    19ae:	77 95       	ror	r23
    19b0:	67 95       	ror	r22
    19b2:	b7 95       	ror	r27
    19b4:	f7 95       	ror	r31
    19b6:	9f 5f       	subi	r25, 0xFF	; 255
    19b8:	c9 f7       	brne	.-14     	; 0x19ac <__divsf3_pse+0x74>
    19ba:	88 0f       	add	r24, r24
    19bc:	91 1d       	adc	r25, r1
    19be:	96 95       	lsr	r25
    19c0:	87 95       	ror	r24
    19c2:	97 f9       	bld	r25, 7
    19c4:	08 95       	ret
    19c6:	e1 e0       	ldi	r30, 0x01	; 1
    19c8:	66 0f       	add	r22, r22
    19ca:	77 1f       	adc	r23, r23
    19cc:	88 1f       	adc	r24, r24
    19ce:	bb 1f       	adc	r27, r27
    19d0:	62 17       	cp	r22, r18
    19d2:	73 07       	cpc	r23, r19
    19d4:	84 07       	cpc	r24, r20
    19d6:	ba 07       	cpc	r27, r26
    19d8:	20 f0       	brcs	.+8      	; 0x19e2 <__divsf3_pse+0xaa>
    19da:	62 1b       	sub	r22, r18
    19dc:	73 0b       	sbc	r23, r19
    19de:	84 0b       	sbc	r24, r20
    19e0:	ba 0b       	sbc	r27, r26
    19e2:	ee 1f       	adc	r30, r30
    19e4:	88 f7       	brcc	.-30     	; 0x19c8 <__divsf3_pse+0x90>
    19e6:	e0 95       	com	r30
    19e8:	08 95       	ret

000019ea <__fixunssfsi>:
    19ea:	98 d0       	rcall	.+304    	; 0x1b1c <__fp_splitA>
    19ec:	88 f0       	brcs	.+34     	; 0x1a10 <__fixunssfsi+0x26>
    19ee:	9f 57       	subi	r25, 0x7F	; 127
    19f0:	90 f0       	brcs	.+36     	; 0x1a16 <__fixunssfsi+0x2c>
    19f2:	b9 2f       	mov	r27, r25
    19f4:	99 27       	eor	r25, r25
    19f6:	b7 51       	subi	r27, 0x17	; 23
    19f8:	a0 f0       	brcs	.+40     	; 0x1a22 <__fixunssfsi+0x38>
    19fa:	d1 f0       	breq	.+52     	; 0x1a30 <__fixunssfsi+0x46>
    19fc:	66 0f       	add	r22, r22
    19fe:	77 1f       	adc	r23, r23
    1a00:	88 1f       	adc	r24, r24
    1a02:	99 1f       	adc	r25, r25
    1a04:	1a f0       	brmi	.+6      	; 0x1a0c <__fixunssfsi+0x22>
    1a06:	ba 95       	dec	r27
    1a08:	c9 f7       	brne	.-14     	; 0x19fc <__fixunssfsi+0x12>
    1a0a:	12 c0       	rjmp	.+36     	; 0x1a30 <__fixunssfsi+0x46>
    1a0c:	b1 30       	cpi	r27, 0x01	; 1
    1a0e:	81 f0       	breq	.+32     	; 0x1a30 <__fixunssfsi+0x46>
    1a10:	9f d0       	rcall	.+318    	; 0x1b50 <__fp_zero>
    1a12:	b1 e0       	ldi	r27, 0x01	; 1
    1a14:	08 95       	ret
    1a16:	9c c0       	rjmp	.+312    	; 0x1b50 <__fp_zero>
    1a18:	67 2f       	mov	r22, r23
    1a1a:	78 2f       	mov	r23, r24
    1a1c:	88 27       	eor	r24, r24
    1a1e:	b8 5f       	subi	r27, 0xF8	; 248
    1a20:	39 f0       	breq	.+14     	; 0x1a30 <__fixunssfsi+0x46>
    1a22:	b9 3f       	cpi	r27, 0xF9	; 249
    1a24:	cc f3       	brlt	.-14     	; 0x1a18 <__fixunssfsi+0x2e>
    1a26:	86 95       	lsr	r24
    1a28:	77 95       	ror	r23
    1a2a:	67 95       	ror	r22
    1a2c:	b3 95       	inc	r27
    1a2e:	d9 f7       	brne	.-10     	; 0x1a26 <__fixunssfsi+0x3c>
    1a30:	3e f4       	brtc	.+14     	; 0x1a40 <__fixunssfsi+0x56>
    1a32:	90 95       	com	r25
    1a34:	80 95       	com	r24
    1a36:	70 95       	com	r23
    1a38:	61 95       	neg	r22
    1a3a:	7f 4f       	sbci	r23, 0xFF	; 255
    1a3c:	8f 4f       	sbci	r24, 0xFF	; 255
    1a3e:	9f 4f       	sbci	r25, 0xFF	; 255
    1a40:	08 95       	ret

00001a42 <__floatunsisf>:
    1a42:	e8 94       	clt
    1a44:	09 c0       	rjmp	.+18     	; 0x1a58 <__floatsisf+0x12>

00001a46 <__floatsisf>:
    1a46:	97 fb       	bst	r25, 7
    1a48:	3e f4       	brtc	.+14     	; 0x1a58 <__floatsisf+0x12>
    1a4a:	90 95       	com	r25
    1a4c:	80 95       	com	r24
    1a4e:	70 95       	com	r23
    1a50:	61 95       	neg	r22
    1a52:	7f 4f       	sbci	r23, 0xFF	; 255
    1a54:	8f 4f       	sbci	r24, 0xFF	; 255
    1a56:	9f 4f       	sbci	r25, 0xFF	; 255
    1a58:	99 23       	and	r25, r25
    1a5a:	a9 f0       	breq	.+42     	; 0x1a86 <__floatsisf+0x40>
    1a5c:	f9 2f       	mov	r31, r25
    1a5e:	96 e9       	ldi	r25, 0x96	; 150
    1a60:	bb 27       	eor	r27, r27
    1a62:	93 95       	inc	r25
    1a64:	f6 95       	lsr	r31
    1a66:	87 95       	ror	r24
    1a68:	77 95       	ror	r23
    1a6a:	67 95       	ror	r22
    1a6c:	b7 95       	ror	r27
    1a6e:	f1 11       	cpse	r31, r1
    1a70:	f8 cf       	rjmp	.-16     	; 0x1a62 <__floatsisf+0x1c>
    1a72:	fa f4       	brpl	.+62     	; 0x1ab2 <__floatsisf+0x6c>
    1a74:	bb 0f       	add	r27, r27
    1a76:	11 f4       	brne	.+4      	; 0x1a7c <__floatsisf+0x36>
    1a78:	60 ff       	sbrs	r22, 0
    1a7a:	1b c0       	rjmp	.+54     	; 0x1ab2 <__floatsisf+0x6c>
    1a7c:	6f 5f       	subi	r22, 0xFF	; 255
    1a7e:	7f 4f       	sbci	r23, 0xFF	; 255
    1a80:	8f 4f       	sbci	r24, 0xFF	; 255
    1a82:	9f 4f       	sbci	r25, 0xFF	; 255
    1a84:	16 c0       	rjmp	.+44     	; 0x1ab2 <__floatsisf+0x6c>
    1a86:	88 23       	and	r24, r24
    1a88:	11 f0       	breq	.+4      	; 0x1a8e <__floatsisf+0x48>
    1a8a:	96 e9       	ldi	r25, 0x96	; 150
    1a8c:	11 c0       	rjmp	.+34     	; 0x1ab0 <__floatsisf+0x6a>
    1a8e:	77 23       	and	r23, r23
    1a90:	21 f0       	breq	.+8      	; 0x1a9a <__floatsisf+0x54>
    1a92:	9e e8       	ldi	r25, 0x8E	; 142
    1a94:	87 2f       	mov	r24, r23
    1a96:	76 2f       	mov	r23, r22
    1a98:	05 c0       	rjmp	.+10     	; 0x1aa4 <__floatsisf+0x5e>
    1a9a:	66 23       	and	r22, r22
    1a9c:	71 f0       	breq	.+28     	; 0x1aba <__floatsisf+0x74>
    1a9e:	96 e8       	ldi	r25, 0x86	; 134
    1aa0:	86 2f       	mov	r24, r22
    1aa2:	70 e0       	ldi	r23, 0x00	; 0
    1aa4:	60 e0       	ldi	r22, 0x00	; 0
    1aa6:	2a f0       	brmi	.+10     	; 0x1ab2 <__floatsisf+0x6c>
    1aa8:	9a 95       	dec	r25
    1aaa:	66 0f       	add	r22, r22
    1aac:	77 1f       	adc	r23, r23
    1aae:	88 1f       	adc	r24, r24
    1ab0:	da f7       	brpl	.-10     	; 0x1aa8 <__floatsisf+0x62>
    1ab2:	88 0f       	add	r24, r24
    1ab4:	96 95       	lsr	r25
    1ab6:	87 95       	ror	r24
    1ab8:	97 f9       	bld	r25, 7
    1aba:	08 95       	ret

00001abc <__fp_inf>:
    1abc:	97 f9       	bld	r25, 7
    1abe:	9f 67       	ori	r25, 0x7F	; 127
    1ac0:	80 e8       	ldi	r24, 0x80	; 128
    1ac2:	70 e0       	ldi	r23, 0x00	; 0
    1ac4:	60 e0       	ldi	r22, 0x00	; 0
    1ac6:	08 95       	ret

00001ac8 <__fp_nan>:
    1ac8:	9f ef       	ldi	r25, 0xFF	; 255
    1aca:	80 ec       	ldi	r24, 0xC0	; 192
    1acc:	08 95       	ret

00001ace <__fp_pscA>:
    1ace:	00 24       	eor	r0, r0
    1ad0:	0a 94       	dec	r0
    1ad2:	16 16       	cp	r1, r22
    1ad4:	17 06       	cpc	r1, r23
    1ad6:	18 06       	cpc	r1, r24
    1ad8:	09 06       	cpc	r0, r25
    1ada:	08 95       	ret

00001adc <__fp_pscB>:
    1adc:	00 24       	eor	r0, r0
    1ade:	0a 94       	dec	r0
    1ae0:	12 16       	cp	r1, r18
    1ae2:	13 06       	cpc	r1, r19
    1ae4:	14 06       	cpc	r1, r20
    1ae6:	05 06       	cpc	r0, r21
    1ae8:	08 95       	ret

00001aea <__fp_round>:
    1aea:	09 2e       	mov	r0, r25
    1aec:	03 94       	inc	r0
    1aee:	00 0c       	add	r0, r0
    1af0:	11 f4       	brne	.+4      	; 0x1af6 <__fp_round+0xc>
    1af2:	88 23       	and	r24, r24
    1af4:	52 f0       	brmi	.+20     	; 0x1b0a <__fp_round+0x20>
    1af6:	bb 0f       	add	r27, r27
    1af8:	40 f4       	brcc	.+16     	; 0x1b0a <__fp_round+0x20>
    1afa:	bf 2b       	or	r27, r31
    1afc:	11 f4       	brne	.+4      	; 0x1b02 <__fp_round+0x18>
    1afe:	60 ff       	sbrs	r22, 0
    1b00:	04 c0       	rjmp	.+8      	; 0x1b0a <__fp_round+0x20>
    1b02:	6f 5f       	subi	r22, 0xFF	; 255
    1b04:	7f 4f       	sbci	r23, 0xFF	; 255
    1b06:	8f 4f       	sbci	r24, 0xFF	; 255
    1b08:	9f 4f       	sbci	r25, 0xFF	; 255
    1b0a:	08 95       	ret

00001b0c <__fp_split3>:
    1b0c:	57 fd       	sbrc	r21, 7
    1b0e:	90 58       	subi	r25, 0x80	; 128
    1b10:	44 0f       	add	r20, r20
    1b12:	55 1f       	adc	r21, r21
    1b14:	59 f0       	breq	.+22     	; 0x1b2c <__fp_splitA+0x10>
    1b16:	5f 3f       	cpi	r21, 0xFF	; 255
    1b18:	71 f0       	breq	.+28     	; 0x1b36 <__fp_splitA+0x1a>
    1b1a:	47 95       	ror	r20

00001b1c <__fp_splitA>:
    1b1c:	88 0f       	add	r24, r24
    1b1e:	97 fb       	bst	r25, 7
    1b20:	99 1f       	adc	r25, r25
    1b22:	61 f0       	breq	.+24     	; 0x1b3c <__fp_splitA+0x20>
    1b24:	9f 3f       	cpi	r25, 0xFF	; 255
    1b26:	79 f0       	breq	.+30     	; 0x1b46 <__fp_splitA+0x2a>
    1b28:	87 95       	ror	r24
    1b2a:	08 95       	ret
    1b2c:	12 16       	cp	r1, r18
    1b2e:	13 06       	cpc	r1, r19
    1b30:	14 06       	cpc	r1, r20
    1b32:	55 1f       	adc	r21, r21
    1b34:	f2 cf       	rjmp	.-28     	; 0x1b1a <__fp_split3+0xe>
    1b36:	46 95       	lsr	r20
    1b38:	f1 df       	rcall	.-30     	; 0x1b1c <__fp_splitA>
    1b3a:	08 c0       	rjmp	.+16     	; 0x1b4c <__fp_splitA+0x30>
    1b3c:	16 16       	cp	r1, r22
    1b3e:	17 06       	cpc	r1, r23
    1b40:	18 06       	cpc	r1, r24
    1b42:	99 1f       	adc	r25, r25
    1b44:	f1 cf       	rjmp	.-30     	; 0x1b28 <__fp_splitA+0xc>
    1b46:	86 95       	lsr	r24
    1b48:	71 05       	cpc	r23, r1
    1b4a:	61 05       	cpc	r22, r1
    1b4c:	08 94       	sec
    1b4e:	08 95       	ret

00001b50 <__fp_zero>:
    1b50:	e8 94       	clt

00001b52 <__fp_szero>:
    1b52:	bb 27       	eor	r27, r27
    1b54:	66 27       	eor	r22, r22
    1b56:	77 27       	eor	r23, r23
    1b58:	cb 01       	movw	r24, r22
    1b5a:	97 f9       	bld	r25, 7
    1b5c:	08 95       	ret

00001b5e <__gesf2>:
    1b5e:	2e d1       	rcall	.+604    	; 0x1dbc <__fp_cmp>
    1b60:	08 f4       	brcc	.+2      	; 0x1b64 <__gesf2+0x6>
    1b62:	8f ef       	ldi	r24, 0xFF	; 255
    1b64:	08 95       	ret

00001b66 <log10>:
    1b66:	0a d0       	rcall	.+20     	; 0x1b7c <log>
    1b68:	29 ed       	ldi	r18, 0xD9	; 217
    1b6a:	3b e5       	ldi	r19, 0x5B	; 91
    1b6c:	4e ed       	ldi	r20, 0xDE	; 222
    1b6e:	5e e3       	ldi	r21, 0x3E	; 62
    1b70:	45 c0       	rjmp	.+138    	; 0x1bfc <__mulsf3>
    1b72:	0e f0       	brts	.+2      	; 0x1b76 <log10+0x10>
    1b74:	47 c1       	rjmp	.+654    	; 0x1e04 <__fp_mpack>
    1b76:	a8 cf       	rjmp	.-176    	; 0x1ac8 <__fp_nan>
    1b78:	68 94       	set
    1b7a:	a0 cf       	rjmp	.-192    	; 0x1abc <__fp_inf>

00001b7c <log>:
    1b7c:	cf df       	rcall	.-98     	; 0x1b1c <__fp_splitA>
    1b7e:	c8 f3       	brcs	.-14     	; 0x1b72 <log10+0xc>
    1b80:	99 23       	and	r25, r25
    1b82:	d1 f3       	breq	.-12     	; 0x1b78 <log10+0x12>
    1b84:	c6 f3       	brts	.-16     	; 0x1b76 <log10+0x10>
    1b86:	df 93       	push	r29
    1b88:	cf 93       	push	r28
    1b8a:	1f 93       	push	r17
    1b8c:	0f 93       	push	r16
    1b8e:	ff 92       	push	r15
    1b90:	c9 2f       	mov	r28, r25
    1b92:	dd 27       	eor	r29, r29
    1b94:	88 23       	and	r24, r24
    1b96:	2a f0       	brmi	.+10     	; 0x1ba2 <log+0x26>
    1b98:	21 97       	sbiw	r28, 0x01	; 1
    1b9a:	66 0f       	add	r22, r22
    1b9c:	77 1f       	adc	r23, r23
    1b9e:	88 1f       	adc	r24, r24
    1ba0:	da f7       	brpl	.-10     	; 0x1b98 <log+0x1c>
    1ba2:	20 e0       	ldi	r18, 0x00	; 0
    1ba4:	30 e0       	ldi	r19, 0x00	; 0
    1ba6:	40 e8       	ldi	r20, 0x80	; 128
    1ba8:	5f eb       	ldi	r21, 0xBF	; 191
    1baa:	9f e3       	ldi	r25, 0x3F	; 63
    1bac:	88 39       	cpi	r24, 0x98	; 152
    1bae:	20 f0       	brcs	.+8      	; 0x1bb8 <log+0x3c>
    1bb0:	80 3e       	cpi	r24, 0xE0	; 224
    1bb2:	30 f0       	brcs	.+12     	; 0x1bc0 <log+0x44>
    1bb4:	21 96       	adiw	r28, 0x01	; 1
    1bb6:	8f 77       	andi	r24, 0x7F	; 127
    1bb8:	4c de       	rcall	.-872    	; 0x1852 <__addsf3>
    1bba:	ec ea       	ldi	r30, 0xAC	; 172
    1bbc:	f0 e0       	ldi	r31, 0x00	; 0
    1bbe:	03 c0       	rjmp	.+6      	; 0x1bc6 <log+0x4a>
    1bc0:	48 de       	rcall	.-880    	; 0x1852 <__addsf3>
    1bc2:	e9 ed       	ldi	r30, 0xD9	; 217
    1bc4:	f0 e0       	ldi	r31, 0x00	; 0
    1bc6:	2c d1       	rcall	.+600    	; 0x1e20 <__fp_powser>
    1bc8:	8b 01       	movw	r16, r22
    1bca:	be 01       	movw	r22, r28
    1bcc:	ec 01       	movw	r28, r24
    1bce:	fb 2e       	mov	r15, r27
    1bd0:	6f 57       	subi	r22, 0x7F	; 127
    1bd2:	71 09       	sbc	r23, r1
    1bd4:	75 95       	asr	r23
    1bd6:	77 1f       	adc	r23, r23
    1bd8:	88 0b       	sbc	r24, r24
    1bda:	99 0b       	sbc	r25, r25
    1bdc:	34 df       	rcall	.-408    	; 0x1a46 <__floatsisf>
    1bde:	28 e1       	ldi	r18, 0x18	; 24
    1be0:	32 e7       	ldi	r19, 0x72	; 114
    1be2:	41 e3       	ldi	r20, 0x31	; 49
    1be4:	5f e3       	ldi	r21, 0x3F	; 63
    1be6:	16 d0       	rcall	.+44     	; 0x1c14 <__mulsf3x>
    1be8:	af 2d       	mov	r26, r15
    1bea:	98 01       	movw	r18, r16
    1bec:	ae 01       	movw	r20, r28
    1bee:	ff 90       	pop	r15
    1bf0:	0f 91       	pop	r16
    1bf2:	1f 91       	pop	r17
    1bf4:	cf 91       	pop	r28
    1bf6:	df 91       	pop	r29
    1bf8:	3d de       	rcall	.-902    	; 0x1874 <__addsf3x>
    1bfa:	77 cf       	rjmp	.-274    	; 0x1aea <__fp_round>

00001bfc <__mulsf3>:
    1bfc:	0b d0       	rcall	.+22     	; 0x1c14 <__mulsf3x>
    1bfe:	75 cf       	rjmp	.-278    	; 0x1aea <__fp_round>
    1c00:	66 df       	rcall	.-308    	; 0x1ace <__fp_pscA>
    1c02:	28 f0       	brcs	.+10     	; 0x1c0e <__mulsf3+0x12>
    1c04:	6b df       	rcall	.-298    	; 0x1adc <__fp_pscB>
    1c06:	18 f0       	brcs	.+6      	; 0x1c0e <__mulsf3+0x12>
    1c08:	95 23       	and	r25, r21
    1c0a:	09 f0       	breq	.+2      	; 0x1c0e <__mulsf3+0x12>
    1c0c:	57 cf       	rjmp	.-338    	; 0x1abc <__fp_inf>
    1c0e:	5c cf       	rjmp	.-328    	; 0x1ac8 <__fp_nan>
    1c10:	11 24       	eor	r1, r1
    1c12:	9f cf       	rjmp	.-194    	; 0x1b52 <__fp_szero>

00001c14 <__mulsf3x>:
    1c14:	7b df       	rcall	.-266    	; 0x1b0c <__fp_split3>
    1c16:	a0 f3       	brcs	.-24     	; 0x1c00 <__mulsf3+0x4>

00001c18 <__mulsf3_pse>:
    1c18:	95 9f       	mul	r25, r21
    1c1a:	d1 f3       	breq	.-12     	; 0x1c10 <__mulsf3+0x14>
    1c1c:	95 0f       	add	r25, r21
    1c1e:	50 e0       	ldi	r21, 0x00	; 0
    1c20:	55 1f       	adc	r21, r21
    1c22:	62 9f       	mul	r22, r18
    1c24:	f0 01       	movw	r30, r0
    1c26:	72 9f       	mul	r23, r18
    1c28:	bb 27       	eor	r27, r27
    1c2a:	f0 0d       	add	r31, r0
    1c2c:	b1 1d       	adc	r27, r1
    1c2e:	63 9f       	mul	r22, r19
    1c30:	aa 27       	eor	r26, r26
    1c32:	f0 0d       	add	r31, r0
    1c34:	b1 1d       	adc	r27, r1
    1c36:	aa 1f       	adc	r26, r26
    1c38:	64 9f       	mul	r22, r20
    1c3a:	66 27       	eor	r22, r22
    1c3c:	b0 0d       	add	r27, r0
    1c3e:	a1 1d       	adc	r26, r1
    1c40:	66 1f       	adc	r22, r22
    1c42:	82 9f       	mul	r24, r18
    1c44:	22 27       	eor	r18, r18
    1c46:	b0 0d       	add	r27, r0
    1c48:	a1 1d       	adc	r26, r1
    1c4a:	62 1f       	adc	r22, r18
    1c4c:	73 9f       	mul	r23, r19
    1c4e:	b0 0d       	add	r27, r0
    1c50:	a1 1d       	adc	r26, r1
    1c52:	62 1f       	adc	r22, r18
    1c54:	83 9f       	mul	r24, r19
    1c56:	a0 0d       	add	r26, r0
    1c58:	61 1d       	adc	r22, r1
    1c5a:	22 1f       	adc	r18, r18
    1c5c:	74 9f       	mul	r23, r20
    1c5e:	33 27       	eor	r19, r19
    1c60:	a0 0d       	add	r26, r0
    1c62:	61 1d       	adc	r22, r1
    1c64:	23 1f       	adc	r18, r19
    1c66:	84 9f       	mul	r24, r20
    1c68:	60 0d       	add	r22, r0
    1c6a:	21 1d       	adc	r18, r1
    1c6c:	82 2f       	mov	r24, r18
    1c6e:	76 2f       	mov	r23, r22
    1c70:	6a 2f       	mov	r22, r26
    1c72:	11 24       	eor	r1, r1
    1c74:	9f 57       	subi	r25, 0x7F	; 127
    1c76:	50 40       	sbci	r21, 0x00	; 0
    1c78:	8a f0       	brmi	.+34     	; 0x1c9c <__mulsf3_pse+0x84>
    1c7a:	e1 f0       	breq	.+56     	; 0x1cb4 <__mulsf3_pse+0x9c>
    1c7c:	88 23       	and	r24, r24
    1c7e:	4a f0       	brmi	.+18     	; 0x1c92 <__mulsf3_pse+0x7a>
    1c80:	ee 0f       	add	r30, r30
    1c82:	ff 1f       	adc	r31, r31
    1c84:	bb 1f       	adc	r27, r27
    1c86:	66 1f       	adc	r22, r22
    1c88:	77 1f       	adc	r23, r23
    1c8a:	88 1f       	adc	r24, r24
    1c8c:	91 50       	subi	r25, 0x01	; 1
    1c8e:	50 40       	sbci	r21, 0x00	; 0
    1c90:	a9 f7       	brne	.-22     	; 0x1c7c <__mulsf3_pse+0x64>
    1c92:	9e 3f       	cpi	r25, 0xFE	; 254
    1c94:	51 05       	cpc	r21, r1
    1c96:	70 f0       	brcs	.+28     	; 0x1cb4 <__mulsf3_pse+0x9c>
    1c98:	11 cf       	rjmp	.-478    	; 0x1abc <__fp_inf>
    1c9a:	5b cf       	rjmp	.-330    	; 0x1b52 <__fp_szero>
    1c9c:	5f 3f       	cpi	r21, 0xFF	; 255
    1c9e:	ec f3       	brlt	.-6      	; 0x1c9a <__mulsf3_pse+0x82>
    1ca0:	98 3e       	cpi	r25, 0xE8	; 232
    1ca2:	dc f3       	brlt	.-10     	; 0x1c9a <__mulsf3_pse+0x82>
    1ca4:	86 95       	lsr	r24
    1ca6:	77 95       	ror	r23
    1ca8:	67 95       	ror	r22
    1caa:	b7 95       	ror	r27
    1cac:	f7 95       	ror	r31
    1cae:	e7 95       	ror	r30
    1cb0:	9f 5f       	subi	r25, 0xFF	; 255
    1cb2:	c1 f7       	brne	.-16     	; 0x1ca4 <__mulsf3_pse+0x8c>
    1cb4:	fe 2b       	or	r31, r30
    1cb6:	88 0f       	add	r24, r24
    1cb8:	91 1d       	adc	r25, r1
    1cba:	96 95       	lsr	r25
    1cbc:	87 95       	ror	r24
    1cbe:	97 f9       	bld	r25, 7
    1cc0:	08 95       	ret

00001cc2 <pow>:
    1cc2:	fa 01       	movw	r30, r20
    1cc4:	ee 0f       	add	r30, r30
    1cc6:	ff 1f       	adc	r31, r31
    1cc8:	30 96       	adiw	r30, 0x00	; 0
    1cca:	21 05       	cpc	r18, r1
    1ccc:	31 05       	cpc	r19, r1
    1cce:	99 f1       	breq	.+102    	; 0x1d36 <pow+0x74>
    1cd0:	61 15       	cp	r22, r1
    1cd2:	71 05       	cpc	r23, r1
    1cd4:	61 f4       	brne	.+24     	; 0x1cee <pow+0x2c>
    1cd6:	80 38       	cpi	r24, 0x80	; 128
    1cd8:	bf e3       	ldi	r27, 0x3F	; 63
    1cda:	9b 07       	cpc	r25, r27
    1cdc:	49 f1       	breq	.+82     	; 0x1d30 <pow+0x6e>
    1cde:	68 94       	set
    1ce0:	90 38       	cpi	r25, 0x80	; 128
    1ce2:	81 05       	cpc	r24, r1
    1ce4:	61 f0       	breq	.+24     	; 0x1cfe <pow+0x3c>
    1ce6:	80 38       	cpi	r24, 0x80	; 128
    1ce8:	bf ef       	ldi	r27, 0xFF	; 255
    1cea:	9b 07       	cpc	r25, r27
    1cec:	41 f0       	breq	.+16     	; 0x1cfe <pow+0x3c>
    1cee:	99 23       	and	r25, r25
    1cf0:	42 f5       	brpl	.+80     	; 0x1d42 <pow+0x80>
    1cf2:	ff 3f       	cpi	r31, 0xFF	; 255
    1cf4:	e1 05       	cpc	r30, r1
    1cf6:	31 05       	cpc	r19, r1
    1cf8:	21 05       	cpc	r18, r1
    1cfa:	11 f1       	breq	.+68     	; 0x1d40 <pow+0x7e>
    1cfc:	e8 94       	clt
    1cfe:	08 94       	sec
    1d00:	e7 95       	ror	r30
    1d02:	d9 01       	movw	r26, r18
    1d04:	aa 23       	and	r26, r26
    1d06:	29 f4       	brne	.+10     	; 0x1d12 <pow+0x50>
    1d08:	ab 2f       	mov	r26, r27
    1d0a:	be 2f       	mov	r27, r30
    1d0c:	f8 5f       	subi	r31, 0xF8	; 248
    1d0e:	d0 f3       	brcs	.-12     	; 0x1d04 <pow+0x42>
    1d10:	10 c0       	rjmp	.+32     	; 0x1d32 <pow+0x70>
    1d12:	ff 5f       	subi	r31, 0xFF	; 255
    1d14:	70 f4       	brcc	.+28     	; 0x1d32 <pow+0x70>
    1d16:	a6 95       	lsr	r26
    1d18:	e0 f7       	brcc	.-8      	; 0x1d12 <pow+0x50>
    1d1a:	f7 39       	cpi	r31, 0x97	; 151
    1d1c:	50 f0       	brcs	.+20     	; 0x1d32 <pow+0x70>
    1d1e:	19 f0       	breq	.+6      	; 0x1d26 <pow+0x64>
    1d20:	ff 3a       	cpi	r31, 0xAF	; 175
    1d22:	38 f4       	brcc	.+14     	; 0x1d32 <pow+0x70>
    1d24:	9f 77       	andi	r25, 0x7F	; 127
    1d26:	9f 93       	push	r25
    1d28:	0c d0       	rcall	.+24     	; 0x1d42 <pow+0x80>
    1d2a:	0f 90       	pop	r0
    1d2c:	07 fc       	sbrc	r0, 7
    1d2e:	90 58       	subi	r25, 0x80	; 128
    1d30:	08 95       	ret
    1d32:	3e f0       	brts	.+14     	; 0x1d42 <pow+0x80>
    1d34:	c9 ce       	rjmp	.-622    	; 0x1ac8 <__fp_nan>
    1d36:	60 e0       	ldi	r22, 0x00	; 0
    1d38:	70 e0       	ldi	r23, 0x00	; 0
    1d3a:	80 e8       	ldi	r24, 0x80	; 128
    1d3c:	9f e3       	ldi	r25, 0x3F	; 63
    1d3e:	08 95       	ret
    1d40:	4f e7       	ldi	r20, 0x7F	; 127
    1d42:	9f 77       	andi	r25, 0x7F	; 127
    1d44:	5f 93       	push	r21
    1d46:	4f 93       	push	r20
    1d48:	3f 93       	push	r19
    1d4a:	2f 93       	push	r18
    1d4c:	17 df       	rcall	.-466    	; 0x1b7c <log>
    1d4e:	2f 91       	pop	r18
    1d50:	3f 91       	pop	r19
    1d52:	4f 91       	pop	r20
    1d54:	5f 91       	pop	r21
    1d56:	52 df       	rcall	.-348    	; 0x1bfc <__mulsf3>
    1d58:	05 c0       	rjmp	.+10     	; 0x1d64 <exp>
    1d5a:	19 f4       	brne	.+6      	; 0x1d62 <pow+0xa0>
    1d5c:	0e f0       	brts	.+2      	; 0x1d60 <pow+0x9e>
    1d5e:	ae ce       	rjmp	.-676    	; 0x1abc <__fp_inf>
    1d60:	f7 ce       	rjmp	.-530    	; 0x1b50 <__fp_zero>
    1d62:	b2 ce       	rjmp	.-668    	; 0x1ac8 <__fp_nan>

00001d64 <exp>:
    1d64:	db de       	rcall	.-586    	; 0x1b1c <__fp_splitA>
    1d66:	c8 f3       	brcs	.-14     	; 0x1d5a <pow+0x98>
    1d68:	96 38       	cpi	r25, 0x86	; 134
    1d6a:	c0 f7       	brcc	.-16     	; 0x1d5c <pow+0x9a>
    1d6c:	07 f8       	bld	r0, 7
    1d6e:	0f 92       	push	r0
    1d70:	e8 94       	clt
    1d72:	2b e3       	ldi	r18, 0x3B	; 59
    1d74:	3a ea       	ldi	r19, 0xAA	; 170
    1d76:	48 eb       	ldi	r20, 0xB8	; 184
    1d78:	5f e7       	ldi	r21, 0x7F	; 127
    1d7a:	4e df       	rcall	.-356    	; 0x1c18 <__mulsf3_pse>
    1d7c:	0f 92       	push	r0
    1d7e:	0f 92       	push	r0
    1d80:	0f 92       	push	r0
    1d82:	4d b7       	in	r20, 0x3d	; 61
    1d84:	5e b7       	in	r21, 0x3e	; 62
    1d86:	0f 92       	push	r0
    1d88:	ad d0       	rcall	.+346    	; 0x1ee4 <modf>
    1d8a:	e6 e0       	ldi	r30, 0x06	; 6
    1d8c:	f1 e0       	ldi	r31, 0x01	; 1
    1d8e:	48 d0       	rcall	.+144    	; 0x1e20 <__fp_powser>
    1d90:	4f 91       	pop	r20
    1d92:	5f 91       	pop	r21
    1d94:	ef 91       	pop	r30
    1d96:	ff 91       	pop	r31
    1d98:	e5 95       	asr	r30
    1d9a:	ee 1f       	adc	r30, r30
    1d9c:	ff 1f       	adc	r31, r31
    1d9e:	49 f0       	breq	.+18     	; 0x1db2 <exp+0x4e>
    1da0:	fe 57       	subi	r31, 0x7E	; 126
    1da2:	e0 68       	ori	r30, 0x80	; 128
    1da4:	44 27       	eor	r20, r20
    1da6:	ee 0f       	add	r30, r30
    1da8:	44 1f       	adc	r20, r20
    1daa:	fa 95       	dec	r31
    1dac:	e1 f7       	brne	.-8      	; 0x1da6 <exp+0x42>
    1dae:	41 95       	neg	r20
    1db0:	55 0b       	sbc	r21, r21
    1db2:	64 d0       	rcall	.+200    	; 0x1e7c <ldexp>
    1db4:	0f 90       	pop	r0
    1db6:	07 fe       	sbrs	r0, 7
    1db8:	58 c0       	rjmp	.+176    	; 0x1e6a <inverse>
    1dba:	08 95       	ret

00001dbc <__fp_cmp>:
    1dbc:	99 0f       	add	r25, r25
    1dbe:	00 08       	sbc	r0, r0
    1dc0:	55 0f       	add	r21, r21
    1dc2:	aa 0b       	sbc	r26, r26
    1dc4:	e0 e8       	ldi	r30, 0x80	; 128
    1dc6:	fe ef       	ldi	r31, 0xFE	; 254
    1dc8:	16 16       	cp	r1, r22
    1dca:	17 06       	cpc	r1, r23
    1dcc:	e8 07       	cpc	r30, r24
    1dce:	f9 07       	cpc	r31, r25
    1dd0:	c0 f0       	brcs	.+48     	; 0x1e02 <__fp_cmp+0x46>
    1dd2:	12 16       	cp	r1, r18
    1dd4:	13 06       	cpc	r1, r19
    1dd6:	e4 07       	cpc	r30, r20
    1dd8:	f5 07       	cpc	r31, r21
    1dda:	98 f0       	brcs	.+38     	; 0x1e02 <__fp_cmp+0x46>
    1ddc:	62 1b       	sub	r22, r18
    1dde:	73 0b       	sbc	r23, r19
    1de0:	84 0b       	sbc	r24, r20
    1de2:	95 0b       	sbc	r25, r21
    1de4:	39 f4       	brne	.+14     	; 0x1df4 <__fp_cmp+0x38>
    1de6:	0a 26       	eor	r0, r26
    1de8:	61 f0       	breq	.+24     	; 0x1e02 <__fp_cmp+0x46>
    1dea:	23 2b       	or	r18, r19
    1dec:	24 2b       	or	r18, r20
    1dee:	25 2b       	or	r18, r21
    1df0:	21 f4       	brne	.+8      	; 0x1dfa <__fp_cmp+0x3e>
    1df2:	08 95       	ret
    1df4:	0a 26       	eor	r0, r26
    1df6:	09 f4       	brne	.+2      	; 0x1dfa <__fp_cmp+0x3e>
    1df8:	a1 40       	sbci	r26, 0x01	; 1
    1dfa:	a6 95       	lsr	r26
    1dfc:	8f ef       	ldi	r24, 0xFF	; 255
    1dfe:	81 1d       	adc	r24, r1
    1e00:	81 1d       	adc	r24, r1
    1e02:	08 95       	ret

00001e04 <__fp_mpack>:
    1e04:	9f 3f       	cpi	r25, 0xFF	; 255
    1e06:	31 f0       	breq	.+12     	; 0x1e14 <__fp_mpack_finite+0xc>

00001e08 <__fp_mpack_finite>:
    1e08:	91 50       	subi	r25, 0x01	; 1
    1e0a:	20 f4       	brcc	.+8      	; 0x1e14 <__fp_mpack_finite+0xc>
    1e0c:	87 95       	ror	r24
    1e0e:	77 95       	ror	r23
    1e10:	67 95       	ror	r22
    1e12:	b7 95       	ror	r27
    1e14:	88 0f       	add	r24, r24
    1e16:	91 1d       	adc	r25, r1
    1e18:	96 95       	lsr	r25
    1e1a:	87 95       	ror	r24
    1e1c:	97 f9       	bld	r25, 7
    1e1e:	08 95       	ret

00001e20 <__fp_powser>:
    1e20:	df 93       	push	r29
    1e22:	cf 93       	push	r28
    1e24:	1f 93       	push	r17
    1e26:	0f 93       	push	r16
    1e28:	ff 92       	push	r15
    1e2a:	ef 92       	push	r14
    1e2c:	df 92       	push	r13
    1e2e:	7b 01       	movw	r14, r22
    1e30:	8c 01       	movw	r16, r24
    1e32:	68 94       	set
    1e34:	05 c0       	rjmp	.+10     	; 0x1e40 <__fp_powser+0x20>
    1e36:	da 2e       	mov	r13, r26
    1e38:	ef 01       	movw	r28, r30
    1e3a:	ec de       	rcall	.-552    	; 0x1c14 <__mulsf3x>
    1e3c:	fe 01       	movw	r30, r28
    1e3e:	e8 94       	clt
    1e40:	a5 91       	lpm	r26, Z+
    1e42:	25 91       	lpm	r18, Z+
    1e44:	35 91       	lpm	r19, Z+
    1e46:	45 91       	lpm	r20, Z+
    1e48:	55 91       	lpm	r21, Z+
    1e4a:	ae f3       	brts	.-22     	; 0x1e36 <__fp_powser+0x16>
    1e4c:	ef 01       	movw	r28, r30
    1e4e:	12 dd       	rcall	.-1500   	; 0x1874 <__addsf3x>
    1e50:	fe 01       	movw	r30, r28
    1e52:	97 01       	movw	r18, r14
    1e54:	a8 01       	movw	r20, r16
    1e56:	da 94       	dec	r13
    1e58:	79 f7       	brne	.-34     	; 0x1e38 <__fp_powser+0x18>
    1e5a:	df 90       	pop	r13
    1e5c:	ef 90       	pop	r14
    1e5e:	ff 90       	pop	r15
    1e60:	0f 91       	pop	r16
    1e62:	1f 91       	pop	r17
    1e64:	cf 91       	pop	r28
    1e66:	df 91       	pop	r29
    1e68:	08 95       	ret

00001e6a <inverse>:
    1e6a:	9b 01       	movw	r18, r22
    1e6c:	ac 01       	movw	r20, r24
    1e6e:	60 e0       	ldi	r22, 0x00	; 0
    1e70:	70 e0       	ldi	r23, 0x00	; 0
    1e72:	80 e8       	ldi	r24, 0x80	; 128
    1e74:	9f e3       	ldi	r25, 0x3F	; 63
    1e76:	51 cd       	rjmp	.-1374   	; 0x191a <__divsf3>
    1e78:	21 ce       	rjmp	.-958    	; 0x1abc <__fp_inf>
    1e7a:	c4 cf       	rjmp	.-120    	; 0x1e04 <__fp_mpack>

00001e7c <ldexp>:
    1e7c:	4f de       	rcall	.-866    	; 0x1b1c <__fp_splitA>
    1e7e:	e8 f3       	brcs	.-6      	; 0x1e7a <inverse+0x10>
    1e80:	99 23       	and	r25, r25
    1e82:	d9 f3       	breq	.-10     	; 0x1e7a <inverse+0x10>
    1e84:	94 0f       	add	r25, r20
    1e86:	51 1d       	adc	r21, r1
    1e88:	bb f3       	brvs	.-18     	; 0x1e78 <inverse+0xe>
    1e8a:	91 50       	subi	r25, 0x01	; 1
    1e8c:	50 40       	sbci	r21, 0x00	; 0
    1e8e:	94 f0       	brlt	.+36     	; 0x1eb4 <ldexp+0x38>
    1e90:	59 f0       	breq	.+22     	; 0x1ea8 <ldexp+0x2c>
    1e92:	88 23       	and	r24, r24
    1e94:	32 f0       	brmi	.+12     	; 0x1ea2 <ldexp+0x26>
    1e96:	66 0f       	add	r22, r22
    1e98:	77 1f       	adc	r23, r23
    1e9a:	88 1f       	adc	r24, r24
    1e9c:	91 50       	subi	r25, 0x01	; 1
    1e9e:	50 40       	sbci	r21, 0x00	; 0
    1ea0:	c1 f7       	brne	.-16     	; 0x1e92 <ldexp+0x16>
    1ea2:	9e 3f       	cpi	r25, 0xFE	; 254
    1ea4:	51 05       	cpc	r21, r1
    1ea6:	44 f7       	brge	.-48     	; 0x1e78 <inverse+0xe>
    1ea8:	88 0f       	add	r24, r24
    1eaa:	91 1d       	adc	r25, r1
    1eac:	96 95       	lsr	r25
    1eae:	87 95       	ror	r24
    1eb0:	97 f9       	bld	r25, 7
    1eb2:	08 95       	ret
    1eb4:	5f 3f       	cpi	r21, 0xFF	; 255
    1eb6:	ac f0       	brlt	.+42     	; 0x1ee2 <ldexp+0x66>
    1eb8:	98 3e       	cpi	r25, 0xE8	; 232
    1eba:	9c f0       	brlt	.+38     	; 0x1ee2 <ldexp+0x66>
    1ebc:	bb 27       	eor	r27, r27
    1ebe:	86 95       	lsr	r24
    1ec0:	77 95       	ror	r23
    1ec2:	67 95       	ror	r22
    1ec4:	b7 95       	ror	r27
    1ec6:	08 f4       	brcc	.+2      	; 0x1eca <ldexp+0x4e>
    1ec8:	b1 60       	ori	r27, 0x01	; 1
    1eca:	93 95       	inc	r25
    1ecc:	c1 f7       	brne	.-16     	; 0x1ebe <ldexp+0x42>
    1ece:	bb 0f       	add	r27, r27
    1ed0:	58 f7       	brcc	.-42     	; 0x1ea8 <ldexp+0x2c>
    1ed2:	11 f4       	brne	.+4      	; 0x1ed8 <ldexp+0x5c>
    1ed4:	60 ff       	sbrs	r22, 0
    1ed6:	e8 cf       	rjmp	.-48     	; 0x1ea8 <ldexp+0x2c>
    1ed8:	6f 5f       	subi	r22, 0xFF	; 255
    1eda:	7f 4f       	sbci	r23, 0xFF	; 255
    1edc:	8f 4f       	sbci	r24, 0xFF	; 255
    1ede:	9f 4f       	sbci	r25, 0xFF	; 255
    1ee0:	e3 cf       	rjmp	.-58     	; 0x1ea8 <ldexp+0x2c>
    1ee2:	37 ce       	rjmp	.-914    	; 0x1b52 <__fp_szero>

00001ee4 <modf>:
    1ee4:	fa 01       	movw	r30, r20
    1ee6:	dc 01       	movw	r26, r24
    1ee8:	aa 0f       	add	r26, r26
    1eea:	bb 1f       	adc	r27, r27
    1eec:	9b 01       	movw	r18, r22
    1eee:	ac 01       	movw	r20, r24
    1ef0:	bf 57       	subi	r27, 0x7F	; 127
    1ef2:	28 f4       	brcc	.+10     	; 0x1efe <modf+0x1a>
    1ef4:	22 27       	eor	r18, r18
    1ef6:	33 27       	eor	r19, r19
    1ef8:	44 27       	eor	r20, r20
    1efa:	50 78       	andi	r21, 0x80	; 128
    1efc:	1f c0       	rjmp	.+62     	; 0x1f3c <modf+0x58>
    1efe:	b7 51       	subi	r27, 0x17	; 23
    1f00:	88 f4       	brcc	.+34     	; 0x1f24 <modf+0x40>
    1f02:	ab 2f       	mov	r26, r27
    1f04:	00 24       	eor	r0, r0
    1f06:	46 95       	lsr	r20
    1f08:	37 95       	ror	r19
    1f0a:	27 95       	ror	r18
    1f0c:	01 1c       	adc	r0, r1
    1f0e:	a3 95       	inc	r26
    1f10:	d2 f3       	brmi	.-12     	; 0x1f06 <modf+0x22>
    1f12:	00 20       	and	r0, r0
    1f14:	69 f0       	breq	.+26     	; 0x1f30 <modf+0x4c>
    1f16:	22 0f       	add	r18, r18
    1f18:	33 1f       	adc	r19, r19
    1f1a:	44 1f       	adc	r20, r20
    1f1c:	b3 95       	inc	r27
    1f1e:	da f3       	brmi	.-10     	; 0x1f16 <modf+0x32>
    1f20:	0d d0       	rcall	.+26     	; 0x1f3c <modf+0x58>
    1f22:	96 cc       	rjmp	.-1748   	; 0x1850 <__subsf3>
    1f24:	61 30       	cpi	r22, 0x01	; 1
    1f26:	71 05       	cpc	r23, r1
    1f28:	a0 e8       	ldi	r26, 0x80	; 128
    1f2a:	8a 07       	cpc	r24, r26
    1f2c:	b9 46       	sbci	r27, 0x69	; 105
    1f2e:	30 f4       	brcc	.+12     	; 0x1f3c <modf+0x58>
    1f30:	9b 01       	movw	r18, r22
    1f32:	ac 01       	movw	r20, r24
    1f34:	66 27       	eor	r22, r22
    1f36:	77 27       	eor	r23, r23
    1f38:	88 27       	eor	r24, r24
    1f3a:	90 78       	andi	r25, 0x80	; 128
    1f3c:	30 96       	adiw	r30, 0x00	; 0
    1f3e:	21 f0       	breq	.+8      	; 0x1f48 <modf+0x64>
    1f40:	20 83       	st	Z, r18
    1f42:	31 83       	std	Z+1, r19	; 0x01
    1f44:	42 83       	std	Z+2, r20	; 0x02
    1f46:	53 83       	std	Z+3, r21	; 0x03
    1f48:	08 95       	ret

00001f4a <__tablejump2__>:
    1f4a:	ee 0f       	add	r30, r30
    1f4c:	ff 1f       	adc	r31, r31
    1f4e:	00 24       	eor	r0, r0
    1f50:	00 1c       	adc	r0, r0
    1f52:	0b be       	out	0x3b, r0	; 59
    1f54:	07 90       	elpm	r0, Z+
    1f56:	f6 91       	elpm	r31, Z
    1f58:	e0 2d       	mov	r30, r0
    1f5a:	09 94       	ijmp

00001f5c <__umulhisi3>:
    1f5c:	a2 9f       	mul	r26, r18
    1f5e:	b0 01       	movw	r22, r0
    1f60:	b3 9f       	mul	r27, r19
    1f62:	c0 01       	movw	r24, r0
    1f64:	a3 9f       	mul	r26, r19
    1f66:	70 0d       	add	r23, r0
    1f68:	81 1d       	adc	r24, r1
    1f6a:	11 24       	eor	r1, r1
    1f6c:	91 1d       	adc	r25, r1
    1f6e:	b2 9f       	mul	r27, r18
    1f70:	70 0d       	add	r23, r0
    1f72:	81 1d       	adc	r24, r1
    1f74:	11 24       	eor	r1, r1
    1f76:	91 1d       	adc	r25, r1
    1f78:	08 95       	ret

00001f7a <sprintf>:
    1f7a:	0f 93       	push	r16
    1f7c:	1f 93       	push	r17
    1f7e:	cf 93       	push	r28
    1f80:	df 93       	push	r29
    1f82:	cd b7       	in	r28, 0x3d	; 61
    1f84:	de b7       	in	r29, 0x3e	; 62
    1f86:	2e 97       	sbiw	r28, 0x0e	; 14
    1f88:	0f b6       	in	r0, 0x3f	; 63
    1f8a:	f8 94       	cli
    1f8c:	de bf       	out	0x3e, r29	; 62
    1f8e:	0f be       	out	0x3f, r0	; 63
    1f90:	cd bf       	out	0x3d, r28	; 61
    1f92:	0d 89       	ldd	r16, Y+21	; 0x15
    1f94:	1e 89       	ldd	r17, Y+22	; 0x16
    1f96:	86 e0       	ldi	r24, 0x06	; 6
    1f98:	8c 83       	std	Y+4, r24	; 0x04
    1f9a:	1a 83       	std	Y+2, r17	; 0x02
    1f9c:	09 83       	std	Y+1, r16	; 0x01
    1f9e:	8f ef       	ldi	r24, 0xFF	; 255
    1fa0:	9f e7       	ldi	r25, 0x7F	; 127
    1fa2:	9e 83       	std	Y+6, r25	; 0x06
    1fa4:	8d 83       	std	Y+5, r24	; 0x05
    1fa6:	ae 01       	movw	r20, r28
    1fa8:	47 5e       	subi	r20, 0xE7	; 231
    1faa:	5f 4f       	sbci	r21, 0xFF	; 255
    1fac:	6f 89       	ldd	r22, Y+23	; 0x17
    1fae:	78 8d       	ldd	r23, Y+24	; 0x18
    1fb0:	ce 01       	movw	r24, r28
    1fb2:	01 96       	adiw	r24, 0x01	; 1
    1fb4:	10 d0       	rcall	.+32     	; 0x1fd6 <vfprintf>
    1fb6:	ef 81       	ldd	r30, Y+7	; 0x07
    1fb8:	f8 85       	ldd	r31, Y+8	; 0x08
    1fba:	e0 0f       	add	r30, r16
    1fbc:	f1 1f       	adc	r31, r17
    1fbe:	10 82       	st	Z, r1
    1fc0:	2e 96       	adiw	r28, 0x0e	; 14
    1fc2:	0f b6       	in	r0, 0x3f	; 63
    1fc4:	f8 94       	cli
    1fc6:	de bf       	out	0x3e, r29	; 62
    1fc8:	0f be       	out	0x3f, r0	; 63
    1fca:	cd bf       	out	0x3d, r28	; 61
    1fcc:	df 91       	pop	r29
    1fce:	cf 91       	pop	r28
    1fd0:	1f 91       	pop	r17
    1fd2:	0f 91       	pop	r16
    1fd4:	08 95       	ret

00001fd6 <vfprintf>:
    1fd6:	2f 92       	push	r2
    1fd8:	3f 92       	push	r3
    1fda:	4f 92       	push	r4
    1fdc:	5f 92       	push	r5
    1fde:	6f 92       	push	r6
    1fe0:	7f 92       	push	r7
    1fe2:	8f 92       	push	r8
    1fe4:	9f 92       	push	r9
    1fe6:	af 92       	push	r10
    1fe8:	bf 92       	push	r11
    1fea:	cf 92       	push	r12
    1fec:	df 92       	push	r13
    1fee:	ef 92       	push	r14
    1ff0:	ff 92       	push	r15
    1ff2:	0f 93       	push	r16
    1ff4:	1f 93       	push	r17
    1ff6:	cf 93       	push	r28
    1ff8:	df 93       	push	r29
    1ffa:	cd b7       	in	r28, 0x3d	; 61
    1ffc:	de b7       	in	r29, 0x3e	; 62
    1ffe:	2b 97       	sbiw	r28, 0x0b	; 11
    2000:	0f b6       	in	r0, 0x3f	; 63
    2002:	f8 94       	cli
    2004:	de bf       	out	0x3e, r29	; 62
    2006:	0f be       	out	0x3f, r0	; 63
    2008:	cd bf       	out	0x3d, r28	; 61
    200a:	6c 01       	movw	r12, r24
    200c:	7b 01       	movw	r14, r22
    200e:	8a 01       	movw	r16, r20
    2010:	fc 01       	movw	r30, r24
    2012:	17 82       	std	Z+7, r1	; 0x07
    2014:	16 82       	std	Z+6, r1	; 0x06
    2016:	83 81       	ldd	r24, Z+3	; 0x03
    2018:	81 ff       	sbrs	r24, 1
    201a:	bf c1       	rjmp	.+894    	; 0x239a <vfprintf+0x3c4>
    201c:	ce 01       	movw	r24, r28
    201e:	01 96       	adiw	r24, 0x01	; 1
    2020:	3c 01       	movw	r6, r24
    2022:	f6 01       	movw	r30, r12
    2024:	93 81       	ldd	r25, Z+3	; 0x03
    2026:	f7 01       	movw	r30, r14
    2028:	93 fd       	sbrc	r25, 3
    202a:	85 91       	lpm	r24, Z+
    202c:	93 ff       	sbrs	r25, 3
    202e:	81 91       	ld	r24, Z+
    2030:	7f 01       	movw	r14, r30
    2032:	88 23       	and	r24, r24
    2034:	09 f4       	brne	.+2      	; 0x2038 <vfprintf+0x62>
    2036:	ad c1       	rjmp	.+858    	; 0x2392 <vfprintf+0x3bc>
    2038:	85 32       	cpi	r24, 0x25	; 37
    203a:	39 f4       	brne	.+14     	; 0x204a <vfprintf+0x74>
    203c:	93 fd       	sbrc	r25, 3
    203e:	85 91       	lpm	r24, Z+
    2040:	93 ff       	sbrs	r25, 3
    2042:	81 91       	ld	r24, Z+
    2044:	7f 01       	movw	r14, r30
    2046:	85 32       	cpi	r24, 0x25	; 37
    2048:	21 f4       	brne	.+8      	; 0x2052 <vfprintf+0x7c>
    204a:	b6 01       	movw	r22, r12
    204c:	90 e0       	ldi	r25, 0x00	; 0
    204e:	d6 d1       	rcall	.+940    	; 0x23fc <fputc>
    2050:	e8 cf       	rjmp	.-48     	; 0x2022 <vfprintf+0x4c>
    2052:	91 2c       	mov	r9, r1
    2054:	21 2c       	mov	r2, r1
    2056:	31 2c       	mov	r3, r1
    2058:	ff e1       	ldi	r31, 0x1F	; 31
    205a:	f3 15       	cp	r31, r3
    205c:	d8 f0       	brcs	.+54     	; 0x2094 <vfprintf+0xbe>
    205e:	8b 32       	cpi	r24, 0x2B	; 43
    2060:	79 f0       	breq	.+30     	; 0x2080 <vfprintf+0xaa>
    2062:	38 f4       	brcc	.+14     	; 0x2072 <vfprintf+0x9c>
    2064:	80 32       	cpi	r24, 0x20	; 32
    2066:	79 f0       	breq	.+30     	; 0x2086 <vfprintf+0xb0>
    2068:	83 32       	cpi	r24, 0x23	; 35
    206a:	a1 f4       	brne	.+40     	; 0x2094 <vfprintf+0xbe>
    206c:	23 2d       	mov	r18, r3
    206e:	20 61       	ori	r18, 0x10	; 16
    2070:	1d c0       	rjmp	.+58     	; 0x20ac <vfprintf+0xd6>
    2072:	8d 32       	cpi	r24, 0x2D	; 45
    2074:	61 f0       	breq	.+24     	; 0x208e <vfprintf+0xb8>
    2076:	80 33       	cpi	r24, 0x30	; 48
    2078:	69 f4       	brne	.+26     	; 0x2094 <vfprintf+0xbe>
    207a:	23 2d       	mov	r18, r3
    207c:	21 60       	ori	r18, 0x01	; 1
    207e:	16 c0       	rjmp	.+44     	; 0x20ac <vfprintf+0xd6>
    2080:	83 2d       	mov	r24, r3
    2082:	82 60       	ori	r24, 0x02	; 2
    2084:	38 2e       	mov	r3, r24
    2086:	e3 2d       	mov	r30, r3
    2088:	e4 60       	ori	r30, 0x04	; 4
    208a:	3e 2e       	mov	r3, r30
    208c:	2a c0       	rjmp	.+84     	; 0x20e2 <vfprintf+0x10c>
    208e:	f3 2d       	mov	r31, r3
    2090:	f8 60       	ori	r31, 0x08	; 8
    2092:	1d c0       	rjmp	.+58     	; 0x20ce <vfprintf+0xf8>
    2094:	37 fc       	sbrc	r3, 7
    2096:	2d c0       	rjmp	.+90     	; 0x20f2 <vfprintf+0x11c>
    2098:	20 ed       	ldi	r18, 0xD0	; 208
    209a:	28 0f       	add	r18, r24
    209c:	2a 30       	cpi	r18, 0x0A	; 10
    209e:	40 f0       	brcs	.+16     	; 0x20b0 <vfprintf+0xda>
    20a0:	8e 32       	cpi	r24, 0x2E	; 46
    20a2:	b9 f4       	brne	.+46     	; 0x20d2 <vfprintf+0xfc>
    20a4:	36 fc       	sbrc	r3, 6
    20a6:	75 c1       	rjmp	.+746    	; 0x2392 <vfprintf+0x3bc>
    20a8:	23 2d       	mov	r18, r3
    20aa:	20 64       	ori	r18, 0x40	; 64
    20ac:	32 2e       	mov	r3, r18
    20ae:	19 c0       	rjmp	.+50     	; 0x20e2 <vfprintf+0x10c>
    20b0:	36 fe       	sbrs	r3, 6
    20b2:	06 c0       	rjmp	.+12     	; 0x20c0 <vfprintf+0xea>
    20b4:	8a e0       	ldi	r24, 0x0A	; 10
    20b6:	98 9e       	mul	r9, r24
    20b8:	20 0d       	add	r18, r0
    20ba:	11 24       	eor	r1, r1
    20bc:	92 2e       	mov	r9, r18
    20be:	11 c0       	rjmp	.+34     	; 0x20e2 <vfprintf+0x10c>
    20c0:	ea e0       	ldi	r30, 0x0A	; 10
    20c2:	2e 9e       	mul	r2, r30
    20c4:	20 0d       	add	r18, r0
    20c6:	11 24       	eor	r1, r1
    20c8:	22 2e       	mov	r2, r18
    20ca:	f3 2d       	mov	r31, r3
    20cc:	f0 62       	ori	r31, 0x20	; 32
    20ce:	3f 2e       	mov	r3, r31
    20d0:	08 c0       	rjmp	.+16     	; 0x20e2 <vfprintf+0x10c>
    20d2:	8c 36       	cpi	r24, 0x6C	; 108
    20d4:	21 f4       	brne	.+8      	; 0x20de <vfprintf+0x108>
    20d6:	83 2d       	mov	r24, r3
    20d8:	80 68       	ori	r24, 0x80	; 128
    20da:	38 2e       	mov	r3, r24
    20dc:	02 c0       	rjmp	.+4      	; 0x20e2 <vfprintf+0x10c>
    20de:	88 36       	cpi	r24, 0x68	; 104
    20e0:	41 f4       	brne	.+16     	; 0x20f2 <vfprintf+0x11c>
    20e2:	f7 01       	movw	r30, r14
    20e4:	93 fd       	sbrc	r25, 3
    20e6:	85 91       	lpm	r24, Z+
    20e8:	93 ff       	sbrs	r25, 3
    20ea:	81 91       	ld	r24, Z+
    20ec:	7f 01       	movw	r14, r30
    20ee:	81 11       	cpse	r24, r1
    20f0:	b3 cf       	rjmp	.-154    	; 0x2058 <vfprintf+0x82>
    20f2:	98 2f       	mov	r25, r24
    20f4:	9f 7d       	andi	r25, 0xDF	; 223
    20f6:	95 54       	subi	r25, 0x45	; 69
    20f8:	93 30       	cpi	r25, 0x03	; 3
    20fa:	28 f4       	brcc	.+10     	; 0x2106 <vfprintf+0x130>
    20fc:	0c 5f       	subi	r16, 0xFC	; 252
    20fe:	1f 4f       	sbci	r17, 0xFF	; 255
    2100:	9f e3       	ldi	r25, 0x3F	; 63
    2102:	99 83       	std	Y+1, r25	; 0x01
    2104:	0d c0       	rjmp	.+26     	; 0x2120 <vfprintf+0x14a>
    2106:	83 36       	cpi	r24, 0x63	; 99
    2108:	31 f0       	breq	.+12     	; 0x2116 <vfprintf+0x140>
    210a:	83 37       	cpi	r24, 0x73	; 115
    210c:	71 f0       	breq	.+28     	; 0x212a <vfprintf+0x154>
    210e:	83 35       	cpi	r24, 0x53	; 83
    2110:	09 f0       	breq	.+2      	; 0x2114 <vfprintf+0x13e>
    2112:	55 c0       	rjmp	.+170    	; 0x21be <vfprintf+0x1e8>
    2114:	20 c0       	rjmp	.+64     	; 0x2156 <vfprintf+0x180>
    2116:	f8 01       	movw	r30, r16
    2118:	80 81       	ld	r24, Z
    211a:	89 83       	std	Y+1, r24	; 0x01
    211c:	0e 5f       	subi	r16, 0xFE	; 254
    211e:	1f 4f       	sbci	r17, 0xFF	; 255
    2120:	88 24       	eor	r8, r8
    2122:	83 94       	inc	r8
    2124:	91 2c       	mov	r9, r1
    2126:	53 01       	movw	r10, r6
    2128:	12 c0       	rjmp	.+36     	; 0x214e <vfprintf+0x178>
    212a:	28 01       	movw	r4, r16
    212c:	f2 e0       	ldi	r31, 0x02	; 2
    212e:	4f 0e       	add	r4, r31
    2130:	51 1c       	adc	r5, r1
    2132:	f8 01       	movw	r30, r16
    2134:	a0 80       	ld	r10, Z
    2136:	b1 80       	ldd	r11, Z+1	; 0x01
    2138:	36 fe       	sbrs	r3, 6
    213a:	03 c0       	rjmp	.+6      	; 0x2142 <vfprintf+0x16c>
    213c:	69 2d       	mov	r22, r9
    213e:	70 e0       	ldi	r23, 0x00	; 0
    2140:	02 c0       	rjmp	.+4      	; 0x2146 <vfprintf+0x170>
    2142:	6f ef       	ldi	r22, 0xFF	; 255
    2144:	7f ef       	ldi	r23, 0xFF	; 255
    2146:	c5 01       	movw	r24, r10
    2148:	4e d1       	rcall	.+668    	; 0x23e6 <strnlen>
    214a:	4c 01       	movw	r8, r24
    214c:	82 01       	movw	r16, r4
    214e:	f3 2d       	mov	r31, r3
    2150:	ff 77       	andi	r31, 0x7F	; 127
    2152:	3f 2e       	mov	r3, r31
    2154:	15 c0       	rjmp	.+42     	; 0x2180 <vfprintf+0x1aa>
    2156:	28 01       	movw	r4, r16
    2158:	22 e0       	ldi	r18, 0x02	; 2
    215a:	42 0e       	add	r4, r18
    215c:	51 1c       	adc	r5, r1
    215e:	f8 01       	movw	r30, r16
    2160:	a0 80       	ld	r10, Z
    2162:	b1 80       	ldd	r11, Z+1	; 0x01
    2164:	36 fe       	sbrs	r3, 6
    2166:	03 c0       	rjmp	.+6      	; 0x216e <vfprintf+0x198>
    2168:	69 2d       	mov	r22, r9
    216a:	70 e0       	ldi	r23, 0x00	; 0
    216c:	02 c0       	rjmp	.+4      	; 0x2172 <vfprintf+0x19c>
    216e:	6f ef       	ldi	r22, 0xFF	; 255
    2170:	7f ef       	ldi	r23, 0xFF	; 255
    2172:	c5 01       	movw	r24, r10
    2174:	2d d1       	rcall	.+602    	; 0x23d0 <strnlen_P>
    2176:	4c 01       	movw	r8, r24
    2178:	f3 2d       	mov	r31, r3
    217a:	f0 68       	ori	r31, 0x80	; 128
    217c:	3f 2e       	mov	r3, r31
    217e:	82 01       	movw	r16, r4
    2180:	33 fc       	sbrc	r3, 3
    2182:	19 c0       	rjmp	.+50     	; 0x21b6 <vfprintf+0x1e0>
    2184:	82 2d       	mov	r24, r2
    2186:	90 e0       	ldi	r25, 0x00	; 0
    2188:	88 16       	cp	r8, r24
    218a:	99 06       	cpc	r9, r25
    218c:	a0 f4       	brcc	.+40     	; 0x21b6 <vfprintf+0x1e0>
    218e:	b6 01       	movw	r22, r12
    2190:	80 e2       	ldi	r24, 0x20	; 32
    2192:	90 e0       	ldi	r25, 0x00	; 0
    2194:	33 d1       	rcall	.+614    	; 0x23fc <fputc>
    2196:	2a 94       	dec	r2
    2198:	f5 cf       	rjmp	.-22     	; 0x2184 <vfprintf+0x1ae>
    219a:	f5 01       	movw	r30, r10
    219c:	37 fc       	sbrc	r3, 7
    219e:	85 91       	lpm	r24, Z+
    21a0:	37 fe       	sbrs	r3, 7
    21a2:	81 91       	ld	r24, Z+
    21a4:	5f 01       	movw	r10, r30
    21a6:	b6 01       	movw	r22, r12
    21a8:	90 e0       	ldi	r25, 0x00	; 0
    21aa:	28 d1       	rcall	.+592    	; 0x23fc <fputc>
    21ac:	21 10       	cpse	r2, r1
    21ae:	2a 94       	dec	r2
    21b0:	21 e0       	ldi	r18, 0x01	; 1
    21b2:	82 1a       	sub	r8, r18
    21b4:	91 08       	sbc	r9, r1
    21b6:	81 14       	cp	r8, r1
    21b8:	91 04       	cpc	r9, r1
    21ba:	79 f7       	brne	.-34     	; 0x219a <vfprintf+0x1c4>
    21bc:	e1 c0       	rjmp	.+450    	; 0x2380 <vfprintf+0x3aa>
    21be:	84 36       	cpi	r24, 0x64	; 100
    21c0:	11 f0       	breq	.+4      	; 0x21c6 <vfprintf+0x1f0>
    21c2:	89 36       	cpi	r24, 0x69	; 105
    21c4:	39 f5       	brne	.+78     	; 0x2214 <vfprintf+0x23e>
    21c6:	f8 01       	movw	r30, r16
    21c8:	37 fe       	sbrs	r3, 7
    21ca:	07 c0       	rjmp	.+14     	; 0x21da <vfprintf+0x204>
    21cc:	60 81       	ld	r22, Z
    21ce:	71 81       	ldd	r23, Z+1	; 0x01
    21d0:	82 81       	ldd	r24, Z+2	; 0x02
    21d2:	93 81       	ldd	r25, Z+3	; 0x03
    21d4:	0c 5f       	subi	r16, 0xFC	; 252
    21d6:	1f 4f       	sbci	r17, 0xFF	; 255
    21d8:	08 c0       	rjmp	.+16     	; 0x21ea <vfprintf+0x214>
    21da:	60 81       	ld	r22, Z
    21dc:	71 81       	ldd	r23, Z+1	; 0x01
    21de:	07 2e       	mov	r0, r23
    21e0:	00 0c       	add	r0, r0
    21e2:	88 0b       	sbc	r24, r24
    21e4:	99 0b       	sbc	r25, r25
    21e6:	0e 5f       	subi	r16, 0xFE	; 254
    21e8:	1f 4f       	sbci	r17, 0xFF	; 255
    21ea:	f3 2d       	mov	r31, r3
    21ec:	ff 76       	andi	r31, 0x6F	; 111
    21ee:	3f 2e       	mov	r3, r31
    21f0:	97 ff       	sbrs	r25, 7
    21f2:	09 c0       	rjmp	.+18     	; 0x2206 <vfprintf+0x230>
    21f4:	90 95       	com	r25
    21f6:	80 95       	com	r24
    21f8:	70 95       	com	r23
    21fa:	61 95       	neg	r22
    21fc:	7f 4f       	sbci	r23, 0xFF	; 255
    21fe:	8f 4f       	sbci	r24, 0xFF	; 255
    2200:	9f 4f       	sbci	r25, 0xFF	; 255
    2202:	f0 68       	ori	r31, 0x80	; 128
    2204:	3f 2e       	mov	r3, r31
    2206:	2a e0       	ldi	r18, 0x0A	; 10
    2208:	30 e0       	ldi	r19, 0x00	; 0
    220a:	a3 01       	movw	r20, r6
    220c:	33 d1       	rcall	.+614    	; 0x2474 <__ultoa_invert>
    220e:	88 2e       	mov	r8, r24
    2210:	86 18       	sub	r8, r6
    2212:	44 c0       	rjmp	.+136    	; 0x229c <vfprintf+0x2c6>
    2214:	85 37       	cpi	r24, 0x75	; 117
    2216:	31 f4       	brne	.+12     	; 0x2224 <vfprintf+0x24e>
    2218:	23 2d       	mov	r18, r3
    221a:	2f 7e       	andi	r18, 0xEF	; 239
    221c:	b2 2e       	mov	r11, r18
    221e:	2a e0       	ldi	r18, 0x0A	; 10
    2220:	30 e0       	ldi	r19, 0x00	; 0
    2222:	25 c0       	rjmp	.+74     	; 0x226e <vfprintf+0x298>
    2224:	93 2d       	mov	r25, r3
    2226:	99 7f       	andi	r25, 0xF9	; 249
    2228:	b9 2e       	mov	r11, r25
    222a:	8f 36       	cpi	r24, 0x6F	; 111
    222c:	c1 f0       	breq	.+48     	; 0x225e <vfprintf+0x288>
    222e:	18 f4       	brcc	.+6      	; 0x2236 <vfprintf+0x260>
    2230:	88 35       	cpi	r24, 0x58	; 88
    2232:	79 f0       	breq	.+30     	; 0x2252 <vfprintf+0x27c>
    2234:	ae c0       	rjmp	.+348    	; 0x2392 <vfprintf+0x3bc>
    2236:	80 37       	cpi	r24, 0x70	; 112
    2238:	19 f0       	breq	.+6      	; 0x2240 <vfprintf+0x26a>
    223a:	88 37       	cpi	r24, 0x78	; 120
    223c:	21 f0       	breq	.+8      	; 0x2246 <vfprintf+0x270>
    223e:	a9 c0       	rjmp	.+338    	; 0x2392 <vfprintf+0x3bc>
    2240:	e9 2f       	mov	r30, r25
    2242:	e0 61       	ori	r30, 0x10	; 16
    2244:	be 2e       	mov	r11, r30
    2246:	b4 fe       	sbrs	r11, 4
    2248:	0d c0       	rjmp	.+26     	; 0x2264 <vfprintf+0x28e>
    224a:	fb 2d       	mov	r31, r11
    224c:	f4 60       	ori	r31, 0x04	; 4
    224e:	bf 2e       	mov	r11, r31
    2250:	09 c0       	rjmp	.+18     	; 0x2264 <vfprintf+0x28e>
    2252:	34 fe       	sbrs	r3, 4
    2254:	0a c0       	rjmp	.+20     	; 0x226a <vfprintf+0x294>
    2256:	29 2f       	mov	r18, r25
    2258:	26 60       	ori	r18, 0x06	; 6
    225a:	b2 2e       	mov	r11, r18
    225c:	06 c0       	rjmp	.+12     	; 0x226a <vfprintf+0x294>
    225e:	28 e0       	ldi	r18, 0x08	; 8
    2260:	30 e0       	ldi	r19, 0x00	; 0
    2262:	05 c0       	rjmp	.+10     	; 0x226e <vfprintf+0x298>
    2264:	20 e1       	ldi	r18, 0x10	; 16
    2266:	30 e0       	ldi	r19, 0x00	; 0
    2268:	02 c0       	rjmp	.+4      	; 0x226e <vfprintf+0x298>
    226a:	20 e1       	ldi	r18, 0x10	; 16
    226c:	32 e0       	ldi	r19, 0x02	; 2
    226e:	f8 01       	movw	r30, r16
    2270:	b7 fe       	sbrs	r11, 7
    2272:	07 c0       	rjmp	.+14     	; 0x2282 <vfprintf+0x2ac>
    2274:	60 81       	ld	r22, Z
    2276:	71 81       	ldd	r23, Z+1	; 0x01
    2278:	82 81       	ldd	r24, Z+2	; 0x02
    227a:	93 81       	ldd	r25, Z+3	; 0x03
    227c:	0c 5f       	subi	r16, 0xFC	; 252
    227e:	1f 4f       	sbci	r17, 0xFF	; 255
    2280:	06 c0       	rjmp	.+12     	; 0x228e <vfprintf+0x2b8>
    2282:	60 81       	ld	r22, Z
    2284:	71 81       	ldd	r23, Z+1	; 0x01
    2286:	80 e0       	ldi	r24, 0x00	; 0
    2288:	90 e0       	ldi	r25, 0x00	; 0
    228a:	0e 5f       	subi	r16, 0xFE	; 254
    228c:	1f 4f       	sbci	r17, 0xFF	; 255
    228e:	a3 01       	movw	r20, r6
    2290:	f1 d0       	rcall	.+482    	; 0x2474 <__ultoa_invert>
    2292:	88 2e       	mov	r8, r24
    2294:	86 18       	sub	r8, r6
    2296:	fb 2d       	mov	r31, r11
    2298:	ff 77       	andi	r31, 0x7F	; 127
    229a:	3f 2e       	mov	r3, r31
    229c:	36 fe       	sbrs	r3, 6
    229e:	0d c0       	rjmp	.+26     	; 0x22ba <vfprintf+0x2e4>
    22a0:	23 2d       	mov	r18, r3
    22a2:	2e 7f       	andi	r18, 0xFE	; 254
    22a4:	a2 2e       	mov	r10, r18
    22a6:	89 14       	cp	r8, r9
    22a8:	58 f4       	brcc	.+22     	; 0x22c0 <vfprintf+0x2ea>
    22aa:	34 fe       	sbrs	r3, 4
    22ac:	0b c0       	rjmp	.+22     	; 0x22c4 <vfprintf+0x2ee>
    22ae:	32 fc       	sbrc	r3, 2
    22b0:	09 c0       	rjmp	.+18     	; 0x22c4 <vfprintf+0x2ee>
    22b2:	83 2d       	mov	r24, r3
    22b4:	8e 7e       	andi	r24, 0xEE	; 238
    22b6:	a8 2e       	mov	r10, r24
    22b8:	05 c0       	rjmp	.+10     	; 0x22c4 <vfprintf+0x2ee>
    22ba:	b8 2c       	mov	r11, r8
    22bc:	a3 2c       	mov	r10, r3
    22be:	03 c0       	rjmp	.+6      	; 0x22c6 <vfprintf+0x2f0>
    22c0:	b8 2c       	mov	r11, r8
    22c2:	01 c0       	rjmp	.+2      	; 0x22c6 <vfprintf+0x2f0>
    22c4:	b9 2c       	mov	r11, r9
    22c6:	a4 fe       	sbrs	r10, 4
    22c8:	0f c0       	rjmp	.+30     	; 0x22e8 <vfprintf+0x312>
    22ca:	fe 01       	movw	r30, r28
    22cc:	e8 0d       	add	r30, r8
    22ce:	f1 1d       	adc	r31, r1
    22d0:	80 81       	ld	r24, Z
    22d2:	80 33       	cpi	r24, 0x30	; 48
    22d4:	21 f4       	brne	.+8      	; 0x22de <vfprintf+0x308>
    22d6:	9a 2d       	mov	r25, r10
    22d8:	99 7e       	andi	r25, 0xE9	; 233
    22da:	a9 2e       	mov	r10, r25
    22dc:	09 c0       	rjmp	.+18     	; 0x22f0 <vfprintf+0x31a>
    22de:	a2 fe       	sbrs	r10, 2
    22e0:	06 c0       	rjmp	.+12     	; 0x22ee <vfprintf+0x318>
    22e2:	b3 94       	inc	r11
    22e4:	b3 94       	inc	r11
    22e6:	04 c0       	rjmp	.+8      	; 0x22f0 <vfprintf+0x31a>
    22e8:	8a 2d       	mov	r24, r10
    22ea:	86 78       	andi	r24, 0x86	; 134
    22ec:	09 f0       	breq	.+2      	; 0x22f0 <vfprintf+0x31a>
    22ee:	b3 94       	inc	r11
    22f0:	a3 fc       	sbrc	r10, 3
    22f2:	10 c0       	rjmp	.+32     	; 0x2314 <vfprintf+0x33e>
    22f4:	a0 fe       	sbrs	r10, 0
    22f6:	06 c0       	rjmp	.+12     	; 0x2304 <vfprintf+0x32e>
    22f8:	b2 14       	cp	r11, r2
    22fa:	80 f4       	brcc	.+32     	; 0x231c <vfprintf+0x346>
    22fc:	28 0c       	add	r2, r8
    22fe:	92 2c       	mov	r9, r2
    2300:	9b 18       	sub	r9, r11
    2302:	0d c0       	rjmp	.+26     	; 0x231e <vfprintf+0x348>
    2304:	b2 14       	cp	r11, r2
    2306:	58 f4       	brcc	.+22     	; 0x231e <vfprintf+0x348>
    2308:	b6 01       	movw	r22, r12
    230a:	80 e2       	ldi	r24, 0x20	; 32
    230c:	90 e0       	ldi	r25, 0x00	; 0
    230e:	76 d0       	rcall	.+236    	; 0x23fc <fputc>
    2310:	b3 94       	inc	r11
    2312:	f8 cf       	rjmp	.-16     	; 0x2304 <vfprintf+0x32e>
    2314:	b2 14       	cp	r11, r2
    2316:	18 f4       	brcc	.+6      	; 0x231e <vfprintf+0x348>
    2318:	2b 18       	sub	r2, r11
    231a:	02 c0       	rjmp	.+4      	; 0x2320 <vfprintf+0x34a>
    231c:	98 2c       	mov	r9, r8
    231e:	21 2c       	mov	r2, r1
    2320:	a4 fe       	sbrs	r10, 4
    2322:	0f c0       	rjmp	.+30     	; 0x2342 <vfprintf+0x36c>
    2324:	b6 01       	movw	r22, r12
    2326:	80 e3       	ldi	r24, 0x30	; 48
    2328:	90 e0       	ldi	r25, 0x00	; 0
    232a:	68 d0       	rcall	.+208    	; 0x23fc <fputc>
    232c:	a2 fe       	sbrs	r10, 2
    232e:	16 c0       	rjmp	.+44     	; 0x235c <vfprintf+0x386>
    2330:	a1 fc       	sbrc	r10, 1
    2332:	03 c0       	rjmp	.+6      	; 0x233a <vfprintf+0x364>
    2334:	88 e7       	ldi	r24, 0x78	; 120
    2336:	90 e0       	ldi	r25, 0x00	; 0
    2338:	02 c0       	rjmp	.+4      	; 0x233e <vfprintf+0x368>
    233a:	88 e5       	ldi	r24, 0x58	; 88
    233c:	90 e0       	ldi	r25, 0x00	; 0
    233e:	b6 01       	movw	r22, r12
    2340:	0c c0       	rjmp	.+24     	; 0x235a <vfprintf+0x384>
    2342:	8a 2d       	mov	r24, r10
    2344:	86 78       	andi	r24, 0x86	; 134
    2346:	51 f0       	breq	.+20     	; 0x235c <vfprintf+0x386>
    2348:	a1 fe       	sbrs	r10, 1
    234a:	02 c0       	rjmp	.+4      	; 0x2350 <vfprintf+0x37a>
    234c:	8b e2       	ldi	r24, 0x2B	; 43
    234e:	01 c0       	rjmp	.+2      	; 0x2352 <vfprintf+0x37c>
    2350:	80 e2       	ldi	r24, 0x20	; 32
    2352:	a7 fc       	sbrc	r10, 7
    2354:	8d e2       	ldi	r24, 0x2D	; 45
    2356:	b6 01       	movw	r22, r12
    2358:	90 e0       	ldi	r25, 0x00	; 0
    235a:	50 d0       	rcall	.+160    	; 0x23fc <fputc>
    235c:	89 14       	cp	r8, r9
    235e:	30 f4       	brcc	.+12     	; 0x236c <vfprintf+0x396>
    2360:	b6 01       	movw	r22, r12
    2362:	80 e3       	ldi	r24, 0x30	; 48
    2364:	90 e0       	ldi	r25, 0x00	; 0
    2366:	4a d0       	rcall	.+148    	; 0x23fc <fputc>
    2368:	9a 94       	dec	r9
    236a:	f8 cf       	rjmp	.-16     	; 0x235c <vfprintf+0x386>
    236c:	8a 94       	dec	r8
    236e:	f3 01       	movw	r30, r6
    2370:	e8 0d       	add	r30, r8
    2372:	f1 1d       	adc	r31, r1
    2374:	80 81       	ld	r24, Z
    2376:	b6 01       	movw	r22, r12
    2378:	90 e0       	ldi	r25, 0x00	; 0
    237a:	40 d0       	rcall	.+128    	; 0x23fc <fputc>
    237c:	81 10       	cpse	r8, r1
    237e:	f6 cf       	rjmp	.-20     	; 0x236c <vfprintf+0x396>
    2380:	22 20       	and	r2, r2
    2382:	09 f4       	brne	.+2      	; 0x2386 <vfprintf+0x3b0>
    2384:	4e ce       	rjmp	.-868    	; 0x2022 <vfprintf+0x4c>
    2386:	b6 01       	movw	r22, r12
    2388:	80 e2       	ldi	r24, 0x20	; 32
    238a:	90 e0       	ldi	r25, 0x00	; 0
    238c:	37 d0       	rcall	.+110    	; 0x23fc <fputc>
    238e:	2a 94       	dec	r2
    2390:	f7 cf       	rjmp	.-18     	; 0x2380 <vfprintf+0x3aa>
    2392:	f6 01       	movw	r30, r12
    2394:	86 81       	ldd	r24, Z+6	; 0x06
    2396:	97 81       	ldd	r25, Z+7	; 0x07
    2398:	02 c0       	rjmp	.+4      	; 0x239e <vfprintf+0x3c8>
    239a:	8f ef       	ldi	r24, 0xFF	; 255
    239c:	9f ef       	ldi	r25, 0xFF	; 255
    239e:	2b 96       	adiw	r28, 0x0b	; 11
    23a0:	0f b6       	in	r0, 0x3f	; 63
    23a2:	f8 94       	cli
    23a4:	de bf       	out	0x3e, r29	; 62
    23a6:	0f be       	out	0x3f, r0	; 63
    23a8:	cd bf       	out	0x3d, r28	; 61
    23aa:	df 91       	pop	r29
    23ac:	cf 91       	pop	r28
    23ae:	1f 91       	pop	r17
    23b0:	0f 91       	pop	r16
    23b2:	ff 90       	pop	r15
    23b4:	ef 90       	pop	r14
    23b6:	df 90       	pop	r13
    23b8:	cf 90       	pop	r12
    23ba:	bf 90       	pop	r11
    23bc:	af 90       	pop	r10
    23be:	9f 90       	pop	r9
    23c0:	8f 90       	pop	r8
    23c2:	7f 90       	pop	r7
    23c4:	6f 90       	pop	r6
    23c6:	5f 90       	pop	r5
    23c8:	4f 90       	pop	r4
    23ca:	3f 90       	pop	r3
    23cc:	2f 90       	pop	r2
    23ce:	08 95       	ret

000023d0 <strnlen_P>:
    23d0:	fc 01       	movw	r30, r24
    23d2:	05 90       	lpm	r0, Z+
    23d4:	61 50       	subi	r22, 0x01	; 1
    23d6:	70 40       	sbci	r23, 0x00	; 0
    23d8:	01 10       	cpse	r0, r1
    23da:	d8 f7       	brcc	.-10     	; 0x23d2 <strnlen_P+0x2>
    23dc:	80 95       	com	r24
    23de:	90 95       	com	r25
    23e0:	8e 0f       	add	r24, r30
    23e2:	9f 1f       	adc	r25, r31
    23e4:	08 95       	ret

000023e6 <strnlen>:
    23e6:	fc 01       	movw	r30, r24
    23e8:	61 50       	subi	r22, 0x01	; 1
    23ea:	70 40       	sbci	r23, 0x00	; 0
    23ec:	01 90       	ld	r0, Z+
    23ee:	01 10       	cpse	r0, r1
    23f0:	d8 f7       	brcc	.-10     	; 0x23e8 <strnlen+0x2>
    23f2:	80 95       	com	r24
    23f4:	90 95       	com	r25
    23f6:	8e 0f       	add	r24, r30
    23f8:	9f 1f       	adc	r25, r31
    23fa:	08 95       	ret

000023fc <fputc>:
    23fc:	0f 93       	push	r16
    23fe:	1f 93       	push	r17
    2400:	cf 93       	push	r28
    2402:	df 93       	push	r29
    2404:	fb 01       	movw	r30, r22
    2406:	23 81       	ldd	r18, Z+3	; 0x03
    2408:	21 fd       	sbrc	r18, 1
    240a:	03 c0       	rjmp	.+6      	; 0x2412 <fputc+0x16>
    240c:	8f ef       	ldi	r24, 0xFF	; 255
    240e:	9f ef       	ldi	r25, 0xFF	; 255
    2410:	2c c0       	rjmp	.+88     	; 0x246a <fputc+0x6e>
    2412:	22 ff       	sbrs	r18, 2
    2414:	16 c0       	rjmp	.+44     	; 0x2442 <fputc+0x46>
    2416:	46 81       	ldd	r20, Z+6	; 0x06
    2418:	57 81       	ldd	r21, Z+7	; 0x07
    241a:	24 81       	ldd	r18, Z+4	; 0x04
    241c:	35 81       	ldd	r19, Z+5	; 0x05
    241e:	42 17       	cp	r20, r18
    2420:	53 07       	cpc	r21, r19
    2422:	44 f4       	brge	.+16     	; 0x2434 <fputc+0x38>
    2424:	a0 81       	ld	r26, Z
    2426:	b1 81       	ldd	r27, Z+1	; 0x01
    2428:	9d 01       	movw	r18, r26
    242a:	2f 5f       	subi	r18, 0xFF	; 255
    242c:	3f 4f       	sbci	r19, 0xFF	; 255
    242e:	31 83       	std	Z+1, r19	; 0x01
    2430:	20 83       	st	Z, r18
    2432:	8c 93       	st	X, r24
    2434:	26 81       	ldd	r18, Z+6	; 0x06
    2436:	37 81       	ldd	r19, Z+7	; 0x07
    2438:	2f 5f       	subi	r18, 0xFF	; 255
    243a:	3f 4f       	sbci	r19, 0xFF	; 255
    243c:	37 83       	std	Z+7, r19	; 0x07
    243e:	26 83       	std	Z+6, r18	; 0x06
    2440:	14 c0       	rjmp	.+40     	; 0x246a <fputc+0x6e>
    2442:	8b 01       	movw	r16, r22
    2444:	ec 01       	movw	r28, r24
    2446:	fb 01       	movw	r30, r22
    2448:	00 84       	ldd	r0, Z+8	; 0x08
    244a:	f1 85       	ldd	r31, Z+9	; 0x09
    244c:	e0 2d       	mov	r30, r0
    244e:	09 95       	icall
    2450:	89 2b       	or	r24, r25
    2452:	e1 f6       	brne	.-72     	; 0x240c <fputc+0x10>
    2454:	d8 01       	movw	r26, r16
    2456:	16 96       	adiw	r26, 0x06	; 6
    2458:	8d 91       	ld	r24, X+
    245a:	9c 91       	ld	r25, X
    245c:	17 97       	sbiw	r26, 0x07	; 7
    245e:	01 96       	adiw	r24, 0x01	; 1
    2460:	17 96       	adiw	r26, 0x07	; 7
    2462:	9c 93       	st	X, r25
    2464:	8e 93       	st	-X, r24
    2466:	16 97       	sbiw	r26, 0x06	; 6
    2468:	ce 01       	movw	r24, r28
    246a:	df 91       	pop	r29
    246c:	cf 91       	pop	r28
    246e:	1f 91       	pop	r17
    2470:	0f 91       	pop	r16
    2472:	08 95       	ret

00002474 <__ultoa_invert>:
    2474:	fa 01       	movw	r30, r20
    2476:	aa 27       	eor	r26, r26
    2478:	28 30       	cpi	r18, 0x08	; 8
    247a:	51 f1       	breq	.+84     	; 0x24d0 <__ultoa_invert+0x5c>
    247c:	20 31       	cpi	r18, 0x10	; 16
    247e:	81 f1       	breq	.+96     	; 0x24e0 <__ultoa_invert+0x6c>
    2480:	e8 94       	clt
    2482:	6f 93       	push	r22
    2484:	6e 7f       	andi	r22, 0xFE	; 254
    2486:	6e 5f       	subi	r22, 0xFE	; 254
    2488:	7f 4f       	sbci	r23, 0xFF	; 255
    248a:	8f 4f       	sbci	r24, 0xFF	; 255
    248c:	9f 4f       	sbci	r25, 0xFF	; 255
    248e:	af 4f       	sbci	r26, 0xFF	; 255
    2490:	b1 e0       	ldi	r27, 0x01	; 1
    2492:	3e d0       	rcall	.+124    	; 0x2510 <__ultoa_invert+0x9c>
    2494:	b4 e0       	ldi	r27, 0x04	; 4
    2496:	3c d0       	rcall	.+120    	; 0x2510 <__ultoa_invert+0x9c>
    2498:	67 0f       	add	r22, r23
    249a:	78 1f       	adc	r23, r24
    249c:	89 1f       	adc	r24, r25
    249e:	9a 1f       	adc	r25, r26
    24a0:	a1 1d       	adc	r26, r1
    24a2:	68 0f       	add	r22, r24
    24a4:	79 1f       	adc	r23, r25
    24a6:	8a 1f       	adc	r24, r26
    24a8:	91 1d       	adc	r25, r1
    24aa:	a1 1d       	adc	r26, r1
    24ac:	6a 0f       	add	r22, r26
    24ae:	71 1d       	adc	r23, r1
    24b0:	81 1d       	adc	r24, r1
    24b2:	91 1d       	adc	r25, r1
    24b4:	a1 1d       	adc	r26, r1
    24b6:	20 d0       	rcall	.+64     	; 0x24f8 <__ultoa_invert+0x84>
    24b8:	09 f4       	brne	.+2      	; 0x24bc <__ultoa_invert+0x48>
    24ba:	68 94       	set
    24bc:	3f 91       	pop	r19
    24be:	2a e0       	ldi	r18, 0x0A	; 10
    24c0:	26 9f       	mul	r18, r22
    24c2:	11 24       	eor	r1, r1
    24c4:	30 19       	sub	r19, r0
    24c6:	30 5d       	subi	r19, 0xD0	; 208
    24c8:	31 93       	st	Z+, r19
    24ca:	de f6       	brtc	.-74     	; 0x2482 <__ultoa_invert+0xe>
    24cc:	cf 01       	movw	r24, r30
    24ce:	08 95       	ret
    24d0:	46 2f       	mov	r20, r22
    24d2:	47 70       	andi	r20, 0x07	; 7
    24d4:	40 5d       	subi	r20, 0xD0	; 208
    24d6:	41 93       	st	Z+, r20
    24d8:	b3 e0       	ldi	r27, 0x03	; 3
    24da:	0f d0       	rcall	.+30     	; 0x24fa <__ultoa_invert+0x86>
    24dc:	c9 f7       	brne	.-14     	; 0x24d0 <__ultoa_invert+0x5c>
    24de:	f6 cf       	rjmp	.-20     	; 0x24cc <__ultoa_invert+0x58>
    24e0:	46 2f       	mov	r20, r22
    24e2:	4f 70       	andi	r20, 0x0F	; 15
    24e4:	40 5d       	subi	r20, 0xD0	; 208
    24e6:	4a 33       	cpi	r20, 0x3A	; 58
    24e8:	18 f0       	brcs	.+6      	; 0x24f0 <__ultoa_invert+0x7c>
    24ea:	49 5d       	subi	r20, 0xD9	; 217
    24ec:	31 fd       	sbrc	r19, 1
    24ee:	40 52       	subi	r20, 0x20	; 32
    24f0:	41 93       	st	Z+, r20
    24f2:	02 d0       	rcall	.+4      	; 0x24f8 <__ultoa_invert+0x84>
    24f4:	a9 f7       	brne	.-22     	; 0x24e0 <__ultoa_invert+0x6c>
    24f6:	ea cf       	rjmp	.-44     	; 0x24cc <__ultoa_invert+0x58>
    24f8:	b4 e0       	ldi	r27, 0x04	; 4
    24fa:	a6 95       	lsr	r26
    24fc:	97 95       	ror	r25
    24fe:	87 95       	ror	r24
    2500:	77 95       	ror	r23
    2502:	67 95       	ror	r22
    2504:	ba 95       	dec	r27
    2506:	c9 f7       	brne	.-14     	; 0x24fa <__ultoa_invert+0x86>
    2508:	00 97       	sbiw	r24, 0x00	; 0
    250a:	61 05       	cpc	r22, r1
    250c:	71 05       	cpc	r23, r1
    250e:	08 95       	ret
    2510:	9b 01       	movw	r18, r22
    2512:	ac 01       	movw	r20, r24
    2514:	0a 2e       	mov	r0, r26
    2516:	06 94       	lsr	r0
    2518:	57 95       	ror	r21
    251a:	47 95       	ror	r20
    251c:	37 95       	ror	r19
    251e:	27 95       	ror	r18
    2520:	ba 95       	dec	r27
    2522:	c9 f7       	brne	.-14     	; 0x2516 <__ultoa_invert+0xa2>
    2524:	62 0f       	add	r22, r18
    2526:	73 1f       	adc	r23, r19
    2528:	84 1f       	adc	r24, r20
    252a:	95 1f       	adc	r25, r21
    252c:	a0 1d       	adc	r26, r0
    252e:	08 95       	ret

00002530 <_exit>:
    2530:	f8 94       	cli

00002532 <__stop_program>:
    2532:	ff cf       	rjmp	.-2      	; 0x2532 <__stop_program>
